---
triple:          'arm64-apple-darwin'
binary-path:     '/Users/smart-it/linaazerouk/Elixir-Kafka/kafka_x_elixir/_build/dev/lib/appsignal/priv/appsignal_extension.so'
relocations:
  - { offset: 0x1E, size: 0x8, addend: 0x0, symName: __ZN5alloc7raw_vec12handle_error17h601d29026320c7bcE, symObjAddr: 0x2D6F0, symBinAddr: 0x10057C, symSize: 0x18 }
  - { offset: 0x84, size: 0x8, addend: 0x0, symName: __ZN5alloc7raw_vec12handle_error17h601d29026320c7bcE, symObjAddr: 0x2D6F0, symBinAddr: 0x10057C, symSize: 0x18 }
  - { offset: 0xC2, size: 0x8, addend: 0x0, symName: __ZN5alloc7raw_vec17capacity_overflow17h8b82a0d619cc539eE, symObjAddr: 0x2D708, symBinAddr: 0x31E94, symSize: 0x34 }
  - { offset: 0x2F3, size: 0x8, addend: 0x0, symName: '__ZN5alloc7raw_vec19RawVec$LT$T$C$A$GT$8grow_one17h4779a05913831576E', symObjAddr: 0x2E168, symBinAddr: 0x32830, symSize: 0xAC }
  - { offset: 0x470, size: 0x8, addend: 0x0, symName: '__ZN5alloc7raw_vec20RawVecInner$LT$A$GT$7reserve21do_reserve_and_handle17h1f4306e683cd6139E', symObjAddr: 0x2D7A8, symBinAddr: 0x1005AC, symSize: 0xAC }
  - { offset: 0x59C, size: 0x8, addend: 0x0, symName: __ZN5alloc7raw_vec11finish_grow17h27c8fc1902edb5c7E, symObjAddr: 0x2D854, symBinAddr: 0x31F1C, symSize: 0x94 }
  - { offset: 0x67B, size: 0x8, addend: 0x0, symName: __ZN5alloc5alloc18handle_alloc_error17hbf276314bdcd35ccE, symObjAddr: 0x2D73C, symBinAddr: 0x100594, symSize: 0x18 }
  - { offset: 0x947, size: 0x8, addend: 0x0, symName: '__ZN5alloc3vec16Vec$LT$T$C$A$GT$6remove13assert_failed17h9912a112ee610e9dE', symObjAddr: 0x2EBC0, symBinAddr: 0x100658, symSize: 0x58 }
  - { offset: 0x97F, size: 0x8, addend: 0x0, symName: '__ZN5alloc3vec16Vec$LT$T$C$A$GT$9split_off13assert_failed17h802708dcfcb7c848E', symObjAddr: 0x2EC18, symBinAddr: 0x1006B0, symSize: 0x58 }
  - { offset: 0x9E5, size: 0x8, addend: 0x0, symName: __ZN5alloc6string6String15from_utf8_lossy17h8f163efaea8609a4E, symObjAddr: 0x2DB90, symBinAddr: 0x32258, symSize: 0x224 }
  - { offset: 0xFBB, size: 0x8, addend: 0x0, symName: '__ZN58_$LT$alloc..string..String$u20$as$u20$core..fmt..Write$GT$9write_str17he3ad2007964ef1fcE', symObjAddr: 0x2DF98, symBinAddr: 0x32660, symSize: 0x78 }
  - { offset: 0x110D, size: 0x8, addend: 0x0, symName: '__ZN58_$LT$alloc..string..String$u20$as$u20$core..fmt..Write$GT$10write_char17h1d9a910f6b3ce5c9E', symObjAddr: 0x2E010, symBinAddr: 0x326D8, symSize: 0x13C }
  - { offset: 0x1376, size: 0x8, addend: 0x0, symName: '__ZN60_$LT$alloc..string..String$u20$as$u20$core..clone..Clone$GT$5clone17h5cebba141cc68fbbE', symObjAddr: 0x2EAC4, symBinAddr: 0x3318C, symSize: 0x84 }
  - { offset: 0x150A, size: 0x8, addend: 0x0, symName: '__ZN62_$LT$alloc..string..Drain$u20$as$u20$core..ops..drop..Drop$GT$4drop17he80c00072d82c5e0E', symObjAddr: 0x2EB48, symBinAddr: 0x33210, symSize: 0x78 }
  - { offset: 0x1692, size: 0x8, addend: 0x0, symName: '__ZN256_$LT$alloc..boxed..convert..$LT$impl$u20$core..convert..From$LT$alloc..string..String$GT$$u20$for$u20$alloc..boxed..Box$LT$dyn$u20$core..error..Error$u2b$core..marker..Sync$u2b$core..marker..Send$GT$$GT$..from..StringError$u20$as$u20$core..error..Error$GT$11description17haf24da0e32dfcaf8E', symObjAddr: 0x2D754, symBinAddr: 0x31EC8, symSize: 0x18 }
  - { offset: 0x174C, size: 0x8, addend: 0x0, symName: '__ZN256_$LT$alloc..boxed..convert..$LT$impl$u20$core..convert..From$LT$alloc..string..String$GT$$u20$for$u20$alloc..boxed..Box$LT$dyn$u20$core..error..Error$u2b$core..marker..Sync$u2b$core..marker..Send$GT$$GT$..from..StringError$u20$as$u20$core..fmt..Display$GT$3fmt17he4630a5f3af1d7c6E', symObjAddr: 0x2D76C, symBinAddr: 0x31EE0, symSize: 0x1C }
  - { offset: 0x1798, size: 0x8, addend: 0x0, symName: '__ZN254_$LT$alloc..boxed..convert..$LT$impl$u20$core..convert..From$LT$alloc..string..String$GT$$u20$for$u20$alloc..boxed..Box$LT$dyn$u20$core..error..Error$u2b$core..marker..Sync$u2b$core..marker..Send$GT$$GT$..from..StringError$u20$as$u20$core..fmt..Debug$GT$3fmt17h273ba26cf8b4c94cE', symObjAddr: 0x2D788, symBinAddr: 0x31EFC, symSize: 0x20 }
  - { offset: 0x17F3, size: 0x8, addend: 0x0, symName: '__ZN72_$LT$$RF$str$u20$as$u20$alloc..ffi..c_str..CString..new..SpecNewImpl$GT$13spec_new_impl17h42d330d7a887decaE', symObjAddr: 0x2D8E8, symBinAddr: 0x31FB0, symSize: 0x178 }
  - { offset: 0x1A6A, size: 0x8, addend: 0x0, symName: __ZN5alloc3ffi5c_str7CString19_from_vec_unchecked17h7828fa3be7f98d49E, symObjAddr: 0x2DA60, symBinAddr: 0x32128, symSize: 0x130 }
  - { offset: 0x1D91, size: 0x8, addend: 0x0, symName: __ZN5alloc3fmt6format12format_inner17h99e4ec81317d4f41E, symObjAddr: 0x2DDB4, symBinAddr: 0x3247C, symSize: 0x19C }
  - { offset: 0x20B6, size: 0x8, addend: 0x0, symName: '__ZN5alloc3str21_$LT$impl$u20$str$GT$12to_lowercase17h927ea6a035fcf676E', symObjAddr: 0x2E214, symBinAddr: 0x328DC, symSize: 0x8B0 }
  - { offset: 0x3174, size: 0x8, addend: 0x0, symName: __ZN4core3fmt5Write9write_fmt17h2009fbdd445e0846E, symObjAddr: 0x2E14C, symBinAddr: 0x32814, symSize: 0x1C }
  - { offset: 0x31A8, size: 0x8, addend: 0x0, symName: '__ZN53_$LT$core..fmt..Error$u20$as$u20$core..fmt..Debug$GT$3fmt17h26e93d978ca53454E', symObjAddr: 0x2DF50, symBinAddr: 0x32618, symSize: 0x24 }
  - { offset: 0x33D1, size: 0x8, addend: 0x0, symName: '__ZN4core3ptr42drop_in_place$LT$alloc..string..String$GT$17he4604acc1824f2bcE', symObjAddr: 0x2DF74, symBinAddr: 0x3263C, symSize: 0x24 }
  - { offset: 0x11E61, size: 0x8, addend: 0x0, symName: _rust_eh_personality, symObjAddr: 0xCA17C, symBinAddr: 0xC6034, symSize: 0x344 }
  - { offset: 0x12130, size: 0x8, addend: 0x0, symName: '__ZN3std3sys11personality3gcc14find_eh_action28_$u7b$$u7b$closure$u7d$$u7d$17hb7a2795a30a2cde1E', symObjAddr: 0xCC4A8, symBinAddr: 0xC7F88, symSize: 0x18 }
  - { offset: 0x12150, size: 0x8, addend: 0x0, symName: '__ZN3std3sys11personality3gcc14find_eh_action28_$u7b$$u7b$closure$u7d$$u7d$17hf64c6cfe84147f16E', symObjAddr: 0xCC4D8, symBinAddr: 0xC7FB8, symSize: 0x18 }
  - { offset: 0x1219F, size: 0x8, addend: 0x0, symName: __ZN3std3sys11personality5dwarf2eh19read_encoded_offset17h523727f9dbab879dE, symObjAddr: 0xCC340, symBinAddr: 0xC7E20, symSize: 0x150 }
  - { offset: 0x1233E, size: 0x8, addend: 0x0, symName: __ZN3std3sys3pal4unix14abort_internal17h4b0b63493bdd72f5E, symObjAddr: 0xCA660, symBinAddr: 0xC6518, symSize: 0xC }
  - { offset: 0x12387, size: 0x8, addend: 0x0, symName: '__ZN3std3sys3pal4unix2os6getenv28_$u7b$$u7b$closure$u7d$$u7d$17h24b632e5a5dda5a0E', symObjAddr: 0xEAC80, symBinAddr: 0xE5C78, symSize: 0x150 }
  - { offset: 0x125AE, size: 0x8, addend: 0x0, symName: __ZN3std3sys3pal4unix2os13env_read_lock17h375c2ab9b89a9b8fE, symObjAddr: 0xEAE7C, symBinAddr: 0xE5DC8, symSize: 0x320 }
  - { offset: 0x12CD9, size: 0x8, addend: 0x0, symName: __ZN3std3sys3pal4unix2fd8FileDesc11read_to_end17h8ad01f191c244160E, symObjAddr: 0xF069C, symBinAddr: 0xEB150, symSize: 0x22C }
  - { offset: 0x1322C, size: 0x8, addend: 0x0, symName: __ZN3std3sys3pal4unix4time8Timespec12sub_timespec17hbca56b49239eff48E, symObjAddr: 0xCD354, symBinAddr: 0xC8CC8, symSize: 0xF8 }
  - { offset: 0x133EB, size: 0x8, addend: 0x0, symName: __ZN3std3sys3pal4unix2fs7readdir17h9863d9aa5d5b9574E, symObjAddr: 0xD1D94, symBinAddr: 0xCD5C4, symSize: 0x270 }
  - { offset: 0x13813, size: 0x8, addend: 0x0, symName: '__ZN91_$LT$std..sys..pal..unix..fs..ReadDir$u20$as$u20$core..iter..traits..iterator..Iterator$GT$4next17h5f1c448a03b5c36bE', symObjAddr: 0xD2004, symBinAddr: 0xCD834, symSize: 0x138 }
  - { offset: 0x13A8C, size: 0x8, addend: 0x0, symName: '__ZN70_$LT$std..sys..pal..unix..fs..Dir$u20$as$u20$core..ops..drop..Drop$GT$4drop17h8b009c12c8bddfc1E', symObjAddr: 0xE08B8, symBinAddr: 0xDC004, symSize: 0xC8 }
  - { offset: 0x13C07, size: 0x8, addend: 0x0, symName: __ZN3std3sys3pal4unix2fs6unlink17hd6a61bcdca09dcabE, symObjAddr: 0xF8638, symBinAddr: 0xF2E18, symSize: 0x18C }
  - { offset: 0x13DDB, size: 0x8, addend: 0x0, symName: __ZN3std3sys3pal4unix2fs8set_perm17hd8e3262a702ad43aE, symObjAddr: 0xF87C4, symBinAddr: 0xF2FA4, symSize: 0x1A0 }
  - { offset: 0x13FC4, size: 0x8, addend: 0x0, symName: __ZN3std3sys3pal4unix2fs4stat17h04c90b893f1c5d86E, symObjAddr: 0xF8964, symBinAddr: 0xF3144, symSize: 0x1DC }
  - { offset: 0x1427A, size: 0x8, addend: 0x0, symName: '__ZN3std3sys3pal4unix7process13process_inner71_$LT$impl$u20$std..sys..pal..unix..process..process_common..Command$GT$7do_exec17hfc2429618a30cbc5E', symObjAddr: 0xEE024, symBinAddr: 0xE8AD8, symSize: 0x354 }
  - { offset: 0x14B7E, size: 0x8, addend: 0x0, symName: '__ZN3std3sys3pal4unix7process13process_inner71_$LT$impl$u20$std..sys..pal..unix..process..process_common..Command$GT$5spawn17he81d812ced40d708E', symObjAddr: 0xF09AC, symBinAddr: 0xEB460, symSize: 0x1B80 }
  - { offset: 0x18C50, size: 0x8, addend: 0x0, symName: __ZN3std3sys3pal4unix7process14process_common7Command3new17h99c715454cdc29b7E, symObjAddr: 0xF8BE8, symBinAddr: 0xF3320, symSize: 0x2A8 }
  - { offset: 0x19178, size: 0x8, addend: 0x0, symName: __ZN3std3sys3pal4unix7process14process_common7Command3arg17hbb924c9438d1f9f6E, symObjAddr: 0xF8F90, symBinAddr: 0xF36C8, symSize: 0xF4 }
  - { offset: 0x19368, size: 0x8, addend: 0x0, symName: __ZN3std3sys3pal4unix7process14process_common5Stdio14to_child_stdio17h5a15a36165026a93E, symObjAddr: 0xEE444, symBinAddr: 0xE8EF8, symSize: 0x154 }
  - { offset: 0x194CD, size: 0x8, addend: 0x0, symName: __ZN3std3sys3pal4unix7process14process_common4os2c17h26641ad02b0d907cE, symObjAddr: 0xF8E90, symBinAddr: 0xF35C8, symSize: 0x100 }
  - { offset: 0x1987A, size: 0x8, addend: 0x0, symName: __ZN3std3sys3pal4unix7process13process_inner7Process4wait17hcd9a445d44b47474E, symObjAddr: 0xF26FC, symBinAddr: 0xED0B8, symSize: 0xA0 }
  - { offset: 0x19983, size: 0x8, addend: 0x0, symName: __ZN3std3sys3pal4unix4pipe9anon_pipe17h73d32bb956cf0ac1E, symObjAddr: 0xEE598, symBinAddr: 0xE904C, symSize: 0x148 }
  - { offset: 0x19C01, size: 0x8, addend: 0x0, symName: __ZN3std3sys3pal4unix4pipe8AnonPipe5write17hd1fbde154ce06bbfE, symObjAddr: 0xF2624, symBinAddr: 0xECFE0, symSize: 0x40 }
  - { offset: 0x19D0A, size: 0x8, addend: 0x0, symName: '__ZN3std3sys3pal4unix4weak18DlsymWeak$LT$F$GT$10initialize17hcc0a41d297c1cf13E', symObjAddr: 0xF252C, symBinAddr: 0x107464, symSize: 0xF8 }
  - { offset: 0x19E16, size: 0x8, addend: 0x0, symName: __ZN3std3sys3pal4unix6thread6Thread3new12thread_start17ha1530855ce6ee203E, symObjAddr: 0xF9084, symBinAddr: 0xF37BC, symSize: 0x6C }
  - { offset: 0x1A056, size: 0x8, addend: 0x0, symName: __ZN3std3sys3pal6common14small_c_string24run_with_cstr_allocating17h804bd0c8886b30fbE, symObjAddr: 0xE0980, symBinAddr: 0x106CA0, symSize: 0xA4 }
  - { offset: 0x1A151, size: 0x8, addend: 0x0, symName: __ZN3std3sys3pal6common14small_c_string24run_with_cstr_allocating17h4cb9a7e6761168f2E, symObjAddr: 0xEA6F4, symBinAddr: 0x106D44, symSize: 0x220 }
  - { offset: 0x1A349, size: 0x8, addend: 0x0, symName: __ZN3std3sys3pal6common14small_c_string24run_with_cstr_allocating17h7889b01fc31f7e19E, symObjAddr: 0xEADD0, symBinAddr: 0x106F64, symSize: 0xAC }
  - { offset: 0x1A510, size: 0x8, addend: 0x0, symName: __ZN3std3sys3pal6common14small_c_string24run_with_cstr_allocating17h2f59421a5faf1514E, symObjAddr: 0xEC45C, symBinAddr: 0x1071C8, symSize: 0x114 }
  - { offset: 0x1A762, size: 0x8, addend: 0x0, symName: __ZN3std3sys3pal6common14small_c_string24run_with_cstr_allocating17h97086097e0ff1ec7E, symObjAddr: 0xF8B40, symBinAddr: 0x107644, symSize: 0xA8 }
  - { offset: 0x1A839, size: 0x8, addend: 0x0, symName: __ZN3std3sys3pal6common14small_c_string24run_with_cstr_allocating17hfd149bf7af0c6eafE.specialized.1, symObjAddr: 0x10430C, symBinAddr: 0x10771C, symSize: 0xC8 }
  - { offset: 0x1A9E1, size: 0x8, addend: 0x0, symName: __ZN3std3sys3pal6common14small_c_string24run_with_cstr_allocating17hfd149bf7af0c6eafE.specialized.2, symObjAddr: 0x1043D4, symBinAddr: 0x1077E4, symSize: 0xB0 }
  - { offset: 0x1AAF6, size: 0x8, addend: 0x0, symName: __ZN3std3sys3pal6common14small_c_string24run_with_cstr_allocating17hfd149bf7af0c6eafE.specialized.3, symObjAddr: 0x104484, symBinAddr: 0x107894, symSize: 0xBC }
  - { offset: 0x1AC29, size: 0x8, addend: 0x0, symName: __ZN3std3sys12thread_local11destructors4list8register17hed2dbc756d9bdf6dE, symObjAddr: 0xCCA24, symBinAddr: 0xC84C4, symSize: 0x164 }
  - { offset: 0x1AFD4, size: 0x8, addend: 0x0, symName: __ZN3std3sys12thread_local6native5eager7destroy17h8c0bd48c8618821cE, symObjAddr: 0xCC9A0, symBinAddr: 0xC8440, symSize: 0x84 }
  - { offset: 0x1B19A, size: 0x8, addend: 0x0, symName: __ZN3std3sys12thread_local5guard5apple6enable9run_dtors17h929003df3809816fE, symObjAddr: 0xCA9A8, symBinAddr: 0xC6828, symSize: 0x1A0 }
  - { offset: 0x1B6E8, size: 0x8, addend: 0x0, symName: __ZN3std3sys4sync4once5queue4Once4call17h01366cd334af4c96E, symObjAddr: 0xCAB48, symBinAddr: 0x106850, symSize: 0x150 }
  - { offset: 0x1B807, size: 0x8, addend: 0x0, symName: __ZN3std3sys4sync4once5queue4wait17haced32bd97d07651E, symObjAddr: 0xCAC98, symBinAddr: 0xC69C8, symSize: 0x1E4 }
  - { offset: 0x1BDA7, size: 0x8, addend: 0x0, symName: '__ZN82_$LT$std..sys..sync..once..queue..WaiterQueue$u20$as$u20$core..ops..drop..Drop$GT$4drop17h5ae7c4fd4b6bb253E', symObjAddr: 0xCAE7C, symBinAddr: 0xC6BAC, symSize: 0xF4 }
  - { offset: 0x1C069, size: 0x8, addend: 0x0, symName: __ZN3std3sys4sync5mutex7pthread14AllocatedMutex3new17he867fe15ecfb5d52E, symObjAddr: 0xCB7A0, symBinAddr: 0xC7280, symSize: 0x1D0 }
  - { offset: 0x1C25F, size: 0x8, addend: 0x0, symName: __ZN3std3sys4sync5mutex7pthread5Mutex4lock4fail17hea964c70823449f2E, symObjAddr: 0xCE7D0, symBinAddr: 0x106BDC, symSize: 0xC4 }
  - { offset: 0x1C5FA, size: 0x8, addend: 0x0, symName: __ZN3std3sys4sync6rwlock5queue6RwLock21read_unlock_contended17h7d90ca48971e5978E, symObjAddr: 0xEB19C, symBinAddr: 0x107010, symSize: 0x54 }
  - { offset: 0x1C77D, size: 0x8, addend: 0x0, symName: __ZN3std3sys4sync6rwlock5queue6RwLock16unlock_contended17h6a9cd11406778e07E, symObjAddr: 0xEB258, symBinAddr: 0x107064, symSize: 0x50 }
  - { offset: 0x1C858, size: 0x8, addend: 0x0, symName: __ZN3std3sys4sync6rwlock5queue6RwLock12unlock_queue17h952a686e9b950f35E, symObjAddr: 0xEB2A8, symBinAddr: 0xE6150, symSize: 0x220 }
  - { offset: 0x1D03B, size: 0x8, addend: 0x0, symName: __ZN3std3sys4sync6rwlock5queue9read_lock17hc49686c734c1a33eE, symObjAddr: 0xF8138, symBinAddr: 0xF29C8, symSize: 0x2C }
  - { offset: 0x1D142, size: 0x8, addend: 0x0, symName: __ZN3std3sys9backtrace15output_filename17hfd79fce78f0057b9E, symObjAddr: 0xCD7C0, symBinAddr: 0xC9134, symSize: 0x374 }
  - { offset: 0x1D3D2, size: 0x8, addend: 0x0, symName: '__ZN3std3sys9backtrace10_print_fmt28_$u7b$$u7b$closure$u7d$$u7d$17h827db16266be837dE', symObjAddr: 0xEBC44, symBinAddr: 0xE69D8, symSize: 0x30 }
  - { offset: 0x1D3FA, size: 0x8, addend: 0x0, symName: '__ZN3std3sys9backtrace10_print_fmt28_$u7b$$u7b$closure$u7d$$u7d$17h30c2699f8cdc8fc2E', symObjAddr: 0xF3418, symBinAddr: 0xEDD84, symSize: 0x2A84 }
  - { offset: 0x23A90, size: 0x8, addend: 0x0, symName: '__ZN3std3sys9backtrace10_print_fmt28_$u7b$$u7b$closure$u7d$$u7d$28_$u7b$$u7b$closure$u7d$$u7d$17hfd24c91e32ae12ccE', symObjAddr: 0xF5E9C, symBinAddr: 0xF0808, symSize: 0x26C }
  - { offset: 0x23CD5, size: 0x8, addend: 0x0, symName: '__ZN98_$LT$std..sys..backtrace..BacktraceLock..print..DisplayBacktrace$u20$as$u20$core..fmt..Display$GT$3fmt17hadba1856081fe8dcE', symObjAddr: 0xF30DC, symBinAddr: 0xEDA48, symSize: 0x32C }
  - { offset: 0x2480C, size: 0x8, addend: 0x0, symName: __ZN3std3sys9backtrace13BacktraceLock5print17he2302a8c253c9a13E, symObjAddr: 0xF7718, symBinAddr: 0xF2040, symSize: 0x50 }
  - { offset: 0x2483D, size: 0x8, addend: 0x0, symName: __ZN3std3sys9backtrace26__rust_end_short_backtrace17h601e3529ca2053dfE, symObjAddr: 0xF7820, symBinAddr: 0xF20B0, symSize: 0xC }
  - { offset: 0x2488C, size: 0x8, addend: 0x0, symName: __ZN3std5alloc24default_alloc_error_hook17hc901c9bcdd6311a0E, symObjAddr: 0xF73A0, symBinAddr: 0xF1D0C, symSize: 0xD0 }
  - { offset: 0x24B43, size: 0x8, addend: 0x0, symName: __ZN3std5alloc8rust_oom17h7ddfb324142ac4ceE, symObjAddr: 0xF90F0, symBinAddr: 0xF3828, symSize: 0x10 }
  - { offset: 0x24B62, size: 0x8, addend: 0x0, symName: ___rg_oom, symObjAddr: 0xF9100, symBinAddr: 0xF3838, symSize: 0x18 }
  - { offset: 0x24C80, size: 0x8, addend: 0x0, symName: '__ZN60_$LT$std..io..error..Error$u20$as$u20$core..fmt..Display$GT$3fmt17h4293946a00623bd8E', symObjAddr: 0xCA66C, symBinAddr: 0xC6524, symSize: 0x270 }
  - { offset: 0x25234, size: 0x8, addend: 0x0, symName: '__ZN58_$LT$std..io..error..Error$u20$as$u20$core..fmt..Debug$GT$3fmt17hb58191b061096d7cE', symObjAddr: 0xCB970, symBinAddr: 0xC7450, symSize: 0x474 }
  - { offset: 0x258D5, size: 0x8, addend: 0x0, symName: '__ZN62_$LT$std..io..error..ErrorKind$u20$as$u20$core..fmt..Debug$GT$3fmt17h874fd0f0f8cfff81E', symObjAddr: 0xCBF24, symBinAddr: 0xC7A04, symSize: 0x38 }
  - { offset: 0x2590A, size: 0x8, addend: 0x0, symName: __ZN3std2io5Write9write_fmt17hbf0611cc5d72cc91E, symObjAddr: 0xCA4C0, symBinAddr: 0xC6378, symSize: 0x10C }
  - { offset: 0x25C0A, size: 0x8, addend: 0x0, symName: '__ZN80_$LT$std..io..Write..write_fmt..Adapter$LT$T$GT$$u20$as$u20$core..fmt..Write$GT$9write_str17h9f9eb52553585463E', symObjAddr: 0xCC00C, symBinAddr: 0xC7AEC, symSize: 0x138 }
  - { offset: 0x25FB2, size: 0x8, addend: 0x0, symName: '__ZN80_$LT$std..io..Write..write_fmt..Adapter$LT$T$GT$$u20$as$u20$core..fmt..Write$GT$9write_str17h93a97f1647553df1E', symObjAddr: 0xED580, symBinAddr: 0xE8034, symSize: 0xB8 }
  - { offset: 0x26246, size: 0x8, addend: 0x0, symName: '__ZN80_$LT$std..io..Write..write_fmt..Adapter$LT$T$GT$$u20$as$u20$core..fmt..Write$GT$9write_str17hb380d131420d435eE', symObjAddr: 0xED908, symBinAddr: 0xE83BC, symSize: 0xB8 }
  - { offset: 0x2655B, size: 0x8, addend: 0x0, symName: '__ZN3std2io8buffered9bufwriter18BufWriter$LT$W$GT$9flush_buf17hefad7f01e53ce2b1E', symObjAddr: 0xCB53C, symBinAddr: 0xC701C, symSize: 0x204 }
  - { offset: 0x26B78, size: 0x8, addend: 0x0, symName: '__ZN3std2io8buffered9bufwriter18BufWriter$LT$W$GT$14write_all_cold17h3700ad48c65cd7f4E', symObjAddr: 0xED460, symBinAddr: 0x107344, symSize: 0x120 }
  - { offset: 0x26ECC, size: 0x8, addend: 0x0, symName: __ZN3std2io5stdio6Stderr4lock17h584188cab63184e5E, symObjAddr: 0xECFF4, symBinAddr: 0xE7BC8, symSize: 0xF0 }
  - { offset: 0x27183, size: 0x8, addend: 0x0, symName: '__ZN61_$LT$std..io..stdio..StdoutLock$u20$as$u20$std..io..Write$GT$9write_all17hc4f838c13c7521f1E', symObjAddr: 0xED0E4, symBinAddr: 0xE7CB8, symSize: 0x37C }
  - { offset: 0x279D2, size: 0x8, addend: 0x0, symName: '__ZN61_$LT$std..io..stdio..StderrLock$u20$as$u20$std..io..Write$GT$9write_all17h9bd0fa4104fbe994E', symObjAddr: 0xED808, symBinAddr: 0xE82BC, symSize: 0x100 }
  - { offset: 0x27D65, size: 0x8, addend: 0x0, symName: __ZN3std2io5stdio6_print17h9989baa6d5472142E, symObjAddr: 0xEDB90, symBinAddr: 0xE8644, symSize: 0x20C }
  - { offset: 0x2833A, size: 0x8, addend: 0x0, symName: __ZN3std2io5stdio7_eprint17hd10bad49ee959af9E, symObjAddr: 0xEDD9C, symBinAddr: 0xE8850, symSize: 0x1F0 }
  - { offset: 0x28837, size: 0x8, addend: 0x0, symName: __ZN3std2io19default_read_to_end16small_probe_read17h6b3d561355f33580E, symObjAddr: 0xEBF5C, symBinAddr: 0xE6CAC, symSize: 0xF8 }
  - { offset: 0x28A43, size: 0x8, addend: 0x0, symName: __ZN3std2io19default_read_to_end16small_probe_read17hdfaa9104146bdaabE, symObjAddr: 0xF08C8, symBinAddr: 0xEB37C, symSize: 0xE4 }
  - { offset: 0x28CC5, size: 0x8, addend: 0x0, symName: __ZN3std6thread8ThreadId3new9exhausted17h6a9e4b00cf609dfbE, symObjAddr: 0xCA970, symBinAddr: 0x106818, symSize: 0x38 }
  - { offset: 0x28D68, size: 0x8, addend: 0x0, symName: __ZN3std6thread7current12init_current17h8c4893a84371c16fE, symObjAddr: 0xCB208, symBinAddr: 0x1069D0, symSize: 0x170 }
  - { offset: 0x29199, size: 0x8, addend: 0x0, symName: __ZN3std6thread6Thread9new_inner17h4324d93f67433e8fE, symObjAddr: 0xCB3B4, symBinAddr: 0xC6ED8, symSize: 0x10C }
  - { offset: 0x2954E, size: 0x8, addend: 0x0, symName: __ZN3std6thread6scoped9ScopeData8overflow17h186da847e53b7b68E, symObjAddr: 0xCC4F0, symBinAddr: 0x106B40, symSize: 0x40 }
  - { offset: 0x2957C, size: 0x8, addend: 0x0, symName: __ZN3std6thread6scoped9ScopeData29decrement_num_running_threads17h927e9a5cd7e31cc3E, symObjAddr: 0xCC530, symBinAddr: 0xC7FD0, symSize: 0x6C }
  - { offset: 0x2968C, size: 0x8, addend: 0x0, symName: '__ZN76_$LT$std..thread..spawnhook..SpawnHooks$u20$as$u20$core..ops..drop..Drop$GT$4drop17hf81dad1e3ca52008E', symObjAddr: 0xCC794, symBinAddr: 0xC8234, symSize: 0xF4 }
  - { offset: 0x29A4E, size: 0x8, addend: 0x0, symName: '__ZN68_$LT$std..thread..local..AccessError$u20$as$u20$core..fmt..Debug$GT$3fmt17hd818c20b6a565282E', symObjAddr: 0xCCF60, symBinAddr: 0xC8904, symSize: 0x24 }
  - { offset: 0x29B93, size: 0x8, addend: 0x0, symName: __ZN3std9panicking3try7cleanup17h5293f19cf382e4ccE, symObjAddr: 0xF7768, symBinAddr: 0x1075AC, symSize: 0x98 }
  - { offset: 0x29D87, size: 0x8, addend: 0x0, symName: __ZN3std9panicking11panic_count17is_zero_slow_path17hb0ad8956c0daab60E, symObjAddr: 0xCE7A4, symBinAddr: 0x106BB0, symSize: 0x2C }
  - { offset: 0x29E6C, size: 0x8, addend: 0x0, symName: _rust_panic, symObjAddr: 0xF0630, symBinAddr: 0xEB0E4, symSize: 0x58 }
  - { offset: 0x29E98, size: 0x8, addend: 0x0, symName: ___rust_drop_panic, symObjAddr: 0xF7470, symBinAddr: 0xF1DDC, symSize: 0xA0 }
  - { offset: 0x2A135, size: 0x8, addend: 0x0, symName: ___rust_foreign_exception, symObjAddr: 0xF7510, symBinAddr: 0xF1E7C, symSize: 0xA0 }
  - { offset: 0x2A3D2, size: 0x8, addend: 0x0, symName: __ZN3std9panicking14payload_as_str17he645413b1f72b8b6E, symObjAddr: 0xF75B0, symBinAddr: 0xF1F1C, symSize: 0xBC }
  - { offset: 0x2A4C4, size: 0x8, addend: 0x0, symName: _rust_begin_unwind, symObjAddr: 0xF7800, symBinAddr: 0xF2090, symSize: 0x20 }
  - { offset: 0x2A4F9, size: 0x8, addend: 0x0, symName: '__ZN3std9panicking19begin_panic_handler28_$u7b$$u7b$closure$u7d$$u7d$17h168c3a4362c8e4dfE', symObjAddr: 0xF782C, symBinAddr: 0xF20BC, symSize: 0xC0 }
  - { offset: 0x2A67F, size: 0x8, addend: 0x0, symName: '__ZN92_$LT$std..panicking..begin_panic_handler..StaticStrPayload$u20$as$u20$core..fmt..Display$GT$3fmt17h501c817f9e8f18d5E', symObjAddr: 0xF8070, symBinAddr: 0xF2900, symSize: 0x20 }
  - { offset: 0x2A6B5, size: 0x8, addend: 0x0, symName: '__ZN99_$LT$std..panicking..begin_panic_handler..StaticStrPayload$u20$as$u20$core..panic..PanicPayload$GT$8take_box17hd191d432f7ababb7E', symObjAddr: 0xF8090, symBinAddr: 0xF2920, symSize: 0x48 }
  - { offset: 0x2A757, size: 0x8, addend: 0x0, symName: '__ZN99_$LT$std..panicking..begin_panic_handler..StaticStrPayload$u20$as$u20$core..panic..PanicPayload$GT$3get17h967ee4b7a84eba9eE', symObjAddr: 0xF80D8, symBinAddr: 0xF2968, symSize: 0x18 }
  - { offset: 0x2A771, size: 0x8, addend: 0x0, symName: '__ZN99_$LT$std..panicking..begin_panic_handler..StaticStrPayload$u20$as$u20$core..panic..PanicPayload$GT$6as_str17hf4e26363985f520eE', symObjAddr: 0xF80F0, symBinAddr: 0xF2980, symSize: 0x18 }
  - { offset: 0x2A791, size: 0x8, addend: 0x0, symName: '__ZN95_$LT$std..panicking..begin_panic_handler..FormatStringPayload$u20$as$u20$core..fmt..Display$GT$3fmt17h28d08ce333d60ab0E', symObjAddr: 0xF8164, symBinAddr: 0xF29F4, symSize: 0x60 }
  - { offset: 0x2A8CC, size: 0x8, addend: 0x0, symName: '__ZN102_$LT$std..panicking..begin_panic_handler..FormatStringPayload$u20$as$u20$core..panic..PanicPayload$GT$8take_box17h5412ff7eca7a6842E', symObjAddr: 0xF81C4, symBinAddr: 0xF2A54, symSize: 0x100 }
  - { offset: 0x2AB5E, size: 0x8, addend: 0x0, symName: '__ZN102_$LT$std..panicking..begin_panic_handler..FormatStringPayload$u20$as$u20$core..panic..PanicPayload$GT$3get17hfaa404de88ff9a00E', symObjAddr: 0xF82C4, symBinAddr: 0xF2B54, symSize: 0xAC }
  - { offset: 0x2ACF3, size: 0x8, addend: 0x0, symName: __ZN3std9panicking20rust_panic_with_hook17h533a16f5f89e4278E, symObjAddr: 0xF78EC, symBinAddr: 0xF217C, symSize: 0x784 }
  - { offset: 0x2BDF5, size: 0x8, addend: 0x0, symName: '__ZN79_$LT$std..backtrace_rs..symbolize..SymbolName$u20$as$u20$core..fmt..Display$GT$3fmt17hb912f3c626fdfd05E', symObjAddr: 0xCD574, symBinAddr: 0xC8EE8, symSize: 0x24C }
  - { offset: 0x2BF35, size: 0x8, addend: 0x0, symName: __ZN3std12backtrace_rs9symbolize5gimli4mmap17heb2d1006e75f5931E, symObjAddr: 0xCEB2C, symBinAddr: 0xCA35C, symSize: 0x150 }
  - { offset: 0x2C441, size: 0x8, addend: 0x0, symName: __ZN3std12backtrace_rs9symbolize5gimli5macho11find_header17hec9b4f951c9dbfeaE, symObjAddr: 0xCED1C, symBinAddr: 0xCA54C, symSize: 0x1D4 }
  - { offset: 0x2CAF9, size: 0x8, addend: 0x0, symName: __ZN3std12backtrace_rs9symbolize5gimli5macho6Object5parse17h45f6aca1da4e2b3aE, symObjAddr: 0xCF220, symBinAddr: 0xCAA50, symSize: 0xAC8 }
  - { offset: 0x2E99F, size: 0x8, addend: 0x0, symName: __ZN3std12backtrace_rs9symbolize5gimli5macho6Object7section17h4a26f56bd491ae2aE, symObjAddr: 0xE0A7C, symBinAddr: 0xDC124, symSize: 0x2A0 }
  - { offset: 0x2EEE3, size: 0x8, addend: 0x0, symName: __ZN3std12backtrace_rs9symbolize5gimli7Context3new17h65089cf49e4973c4E, symObjAddr: 0xCFCE8, symBinAddr: 0xCB518, symSize: 0x20AC }
  - { offset: 0x3352E, size: 0x8, addend: 0x0, symName: __ZN3std12backtrace_rs9symbolize5gimli7Context11find_frames17h9c4d9c26adc24926E, symObjAddr: 0xD2550, symBinAddr: 0xCDD80, symSize: 0x3B0 }
  - { offset: 0x33D2E, size: 0x8, addend: 0x0, symName: __ZN3std12backtrace_rs9symbolize6Symbol4name17h4554e4cb08d97462E, symObjAddr: 0xEA914, symBinAddr: 0xE590C, symSize: 0xE4 }
  - { offset: 0x33EA4, size: 0x8, addend: 0x0, symName: __ZN3std12backtrace_rs9backtrace9libunwind5trace8trace_fn17h00c86fc041cee3afE, symObjAddr: 0xEAC04, symBinAddr: 0xE5BFC, symSize: 0x44 }
  - { offset: 0x33F46, size: 0x8, addend: 0x0, symName: __ZN3std12backtrace_rs5print17BacktraceFrameFmt21print_raw_with_column17h807c8a416ad532e0E, symObjAddr: 0xEB6A0, symBinAddr: 0xE6434, symSize: 0x4D8 }
  - { offset: 0x34268, size: 0x8, addend: 0x0, symName: __ZN3std4path4Path5_join17ha35cfe5525a85bf4E, symObjAddr: 0xD21E4, symBinAddr: 0xCDA14, symSize: 0x190 }
  - { offset: 0x3475B, size: 0x8, addend: 0x0, symName: __ZN3std4path4Path6is_dir17h7381c69b70f16f74E, symObjAddr: 0xECC4C, symBinAddr: 0xE7888, symSize: 0x260 }
  - { offset: 0x34DAB, size: 0x8, addend: 0x0, symName: __ZN3std4path10Components7as_path17ha221a3f1bc33b954E, symObjAddr: 0xCDFE8, symBinAddr: 0xC995C, symSize: 0x530 }
  - { offset: 0x3526C, size: 0x8, addend: 0x0, symName: __ZN3std4path10Components25parse_next_component_back17hf7e82636be5b6836E, symObjAddr: 0xCE518, symBinAddr: 0xC9E8C, symSize: 0x104 }
  - { offset: 0x35429, size: 0x8, addend: 0x0, symName: __ZN3std4path10Components15len_before_body17h6c912099392c0f1fE, symObjAddr: 0xCE61C, symBinAddr: 0xC9F90, symSize: 0x188 }
  - { offset: 0x35440, size: 0x8, addend: 0x0, symName: __ZN3std4path10Components15len_before_body17h6c912099392c0f1fE, symObjAddr: 0xCE61C, symBinAddr: 0xC9F90, symSize: 0x188 }
  - { offset: 0x35455, size: 0x8, addend: 0x0, symName: __ZN3std4path10Components15len_before_body17h6c912099392c0f1fE, symObjAddr: 0xCE61C, symBinAddr: 0xC9F90, symSize: 0x188 }
  - { offset: 0x356BD, size: 0x8, addend: 0x0, symName: '__ZN80_$LT$std..path..Components$u20$as$u20$core..iter..traits..iterator..Iterator$GT$4next17h7a7c8a6835f98bfaE', symObjAddr: 0xCDB34, symBinAddr: 0xC94A8, symSize: 0x37C }
  - { offset: 0x35A1B, size: 0x8, addend: 0x0, symName: '__ZN61_$LT$std..path..Component$u20$as$u20$core..cmp..PartialEq$GT$2eq17hda7247e7407d4f17E', symObjAddr: 0xCDEB0, symBinAddr: 0xC9824, symSize: 0x138 }
  - { offset: 0x35B95, size: 0x8, addend: 0x0, symName: '__ZN95_$LT$std..path..Components$u20$as$u20$core..iter..traits..double_ended..DoubleEndedIterator$GT$9next_back17h02a100036072787bE', symObjAddr: 0xCEEF0, symBinAddr: 0xCA720, symSize: 0x330 }
  - { offset: 0x35D66, size: 0x8, addend: 0x0, symName: '__ZN55_$LT$std..path..PathBuf$u20$as$u20$core..fmt..Debug$GT$3fmt17h56141c12c95b6a53E', symObjAddr: 0xEBE1C, symBinAddr: 0xE6B6C, symSize: 0x20 }
  - { offset: 0x36254, size: 0x8, addend: 0x0, symName: '__ZN3std4sync4once4Once15call_once_force28_$u7b$$u7b$closure$u7d$$u7d$17h9d5022e2355a2f22E', symObjAddr: 0xECF84, symBinAddr: 0xE7B58, symSize: 0x70 }
  - { offset: 0x36408, size: 0x8, addend: 0x0, symName: '__ZN3std4sync9once_lock17OnceLock$LT$T$GT$10initialize17h33f6e82353b3bab0E', symObjAddr: 0xECEAC, symBinAddr: 0x1072DC, symSize: 0x68 }
  - { offset: 0x36433, size: 0x8, addend: 0x0, symName: '__ZN3std4sync9once_lock17OnceLock$LT$T$GT$10initialize17h33f6e82353b3bab0E', symObjAddr: 0xECEAC, symBinAddr: 0x1072DC, symSize: 0x68 }
  - { offset: 0x36447, size: 0x8, addend: 0x0, symName: '__ZN3std4sync9once_lock17OnceLock$LT$T$GT$10initialize17h33f6e82353b3bab0E', symObjAddr: 0xECEAC, symBinAddr: 0x1072DC, symSize: 0x68 }
  - { offset: 0x3645B, size: 0x8, addend: 0x0, symName: '__ZN3std4sync9once_lock17OnceLock$LT$T$GT$10initialize17h33f6e82353b3bab0E', symObjAddr: 0xECEAC, symBinAddr: 0x1072DC, symSize: 0x68 }
  - { offset: 0x3657F, size: 0x8, addend: 0x0, symName: __ZN3std2fs11OpenOptions5_open17h9d134421f658669aE, symObjAddr: 0xEA3FC, symBinAddr: 0xE5614, symSize: 0x2F8 }
  - { offset: 0x3681C, size: 0x8, addend: 0x0, symName: '__ZN47_$LT$std..fs..File$u20$as$u20$std..io..Read$GT$14read_to_string17hef32fffec2770116E', symObjAddr: 0xEC054, symBinAddr: 0xE6DA4, symSize: 0x408 }
  - { offset: 0x370CE, size: 0x8, addend: 0x0, symName: __ZN3std2fs10DirBuilder7_create17h096003ef909fc078E, symObjAddr: 0xEC570, symBinAddr: 0xE71AC, symSize: 0x1A0 }
  - { offset: 0x3728A, size: 0x8, addend: 0x0, symName: __ZN3std2fs10DirBuilder14create_dir_all17ha2950f72f1da0137E, symObjAddr: 0xEC710, symBinAddr: 0xE734C, symSize: 0x53C }
  - { offset: 0x37C1A, size: 0x8, addend: 0x0, symName: __ZN3std3env7_var_os17hcb417c8358d863b4E, symObjAddr: 0xEA9F8, symBinAddr: 0xE59F0, symSize: 0x20C }
  - { offset: 0x38085, size: 0x8, addend: 0x0, symName: __ZN3std10sys_common7process10CommandEnv3set17h48c3e44554f5d05cE, symObjAddr: 0xF6574, symBinAddr: 0xF0EE0, symSize: 0x9B8 }
  - { offset: 0x39BA8, size: 0x8, addend: 0x0, symName: __ZN3std7process7Command6output17he27ba49eae833d16E, symObjAddr: 0xF2AC8, symBinAddr: 0xED440, symSize: 0x4F0 }
  - { offset: 0x3A5C8, size: 0x8, addend: 0x0, symName: __ZN3std7process5abort17h969c7f7e5f9e4de2E, symObjAddr: 0xF2FB8, symBinAddr: 0x1075A0, symSize: 0xC }
  - { offset: 0x3A5ED, size: 0x8, addend: 0x0, symName: __ZN3std4time10SystemTime3now17hc74f826fcaef3210E, symObjAddr: 0xF2FC4, symBinAddr: 0xED930, symSize: 0x118 }
  - { offset: 0x3AEEF, size: 0x8, addend: 0x0, symName: '__ZN4core3ptr81drop_in_place$LT$core..result..Result$LT$$LP$$RP$$C$std..io..error..Error$GT$$GT$17h14d8a749e35cee38E', symObjAddr: 0xCA5CC, symBinAddr: 0xC6484, symSize: 0x94 }
  - { offset: 0x3B18F, size: 0x8, addend: 0x0, symName: '__ZN4core3ptr42drop_in_place$LT$std..io..error..Error$GT$17h36811cc168898e97E', symObjAddr: 0xCA8DC, symBinAddr: 0xC6794, symSize: 0x94 }
  - { offset: 0x3BFF4, size: 0x8, addend: 0x0, symName: '__ZN4core3ptr44drop_in_place$LT$std..thread..PanicGuard$GT$17hd105bf08bc0096d1E', symObjAddr: 0xCB378, symBinAddr: 0xC6E9C, symSize: 0x3C }
  - { offset: 0x3C0C9, size: 0x8, addend: 0x0, symName: '__ZN4core3ptr90drop_in_place$LT$std..io..buffered..bufwriter..BufWriter$LT$W$GT$..flush_buf..BufGuard$GT$17hef9b0092bdccbe2bE', symObjAddr: 0xCB740, symBinAddr: 0xC7220, symSize: 0x60 }
  - { offset: 0x3C26B, size: 0x8, addend: 0x0, symName: '__ZN4core3ptr42drop_in_place$LT$alloc..string..String$GT$17h14ac80111b5f928dE', symObjAddr: 0xCBE00, symBinAddr: 0xC78E0, symSize: 0x24 }
  - { offset: 0x3C32A, size: 0x8, addend: 0x0, symName: '__ZN4core3ptr88drop_in_place$LT$std..io..Write..write_fmt..Adapter$LT$alloc..vec..Vec$LT$u8$GT$$GT$$GT$17hf1d16fc49d9ad868E', symObjAddr: 0xCBF78, symBinAddr: 0xC7A58, symSize: 0x94 }
  - { offset: 0x3C67B, size: 0x8, addend: 0x0, symName: '__ZN4core3ptr55drop_in_place$LT$std..thread..spawnhook..SpawnHooks$GT$17ha40d0a8bed79f4c5E', symObjAddr: 0xCCB88, symBinAddr: 0xC8628, symSize: 0x80 }
  - { offset: 0x3C791, size: 0x8, addend: 0x0, symName: '__ZN4core3ptr131drop_in_place$LT$alloc..boxed..Box$LT$dyn$u20$core..ops..function..FnOnce$LT$$LP$$RP$$GT$$u2b$Output$u20$$u3d$$u20$$LP$$RP$$GT$$GT$17hffe89a196f33b5ebE', symObjAddr: 0xCCC08, symBinAddr: 0xC86A8, symSize: 0x70 }
  - { offset: 0x3C8FF, size: 0x8, addend: 0x0, symName: '__ZN4core3ptr177drop_in_place$LT$alloc..vec..Vec$LT$alloc..boxed..Box$LT$dyn$u20$core..ops..function..FnOnce$LT$$LP$$RP$$GT$$u2b$Output$u20$$u3d$$u20$$LP$$RP$$u2b$core..marker..Send$GT$$GT$$GT$17h33b9702f0bf2f87dE', symObjAddr: 0xCCD74, symBinAddr: 0xC8718, symSize: 0xE0 }
  - { offset: 0x3CBF5, size: 0x8, addend: 0x0, symName: '__ZN4core3ptr82drop_in_place$LT$std..sys..thread_local..abort_on_dtor_unwind..DtorUnwindGuard$GT$17h34a6f334ebfa1a94E', symObjAddr: 0xCD08C, symBinAddr: 0xC8A30, symSize: 0x3C }
  - { offset: 0x3CC3B, size: 0x8, addend: 0x0, symName: '__ZN4core3ptr107drop_in_place$LT$core..option..Option$LT$core..cell..Cell$LT$std..thread..spawnhook..SpawnHooks$GT$$GT$$GT$17h7466b5c3086a070cE', symObjAddr: 0xCD0C8, symBinAddr: 0xC8A6C, symSize: 0x8C }
  - { offset: 0x3CD5F, size: 0x8, addend: 0x0, symName: '__ZN4core3ptr193drop_in_place$LT$alloc..vec..into_iter..IntoIter$LT$alloc..boxed..Box$LT$dyn$u20$core..ops..function..FnOnce$LT$$LP$$RP$$GT$$u2b$Output$u20$$u3d$$u20$$LP$$RP$$u2b$core..marker..Send$GT$$GT$$GT$17h063dd61cec5bebb6E', symObjAddr: 0xCD154, symBinAddr: 0xC8AF8, symSize: 0xEC }
  - { offset: 0x3D0D1, size: 0x8, addend: 0x0, symName: '__ZN4core3ptr48drop_in_place$LT$alloc..ffi..c_str..NulError$GT$17hd9afeb7683ad374fE', symObjAddr: 0xCD44C, symBinAddr: 0xC8DC0, symSize: 0x24 }
  - { offset: 0x3D1EB, size: 0x8, addend: 0x0, symName: '__ZN4core3ptr88drop_in_place$LT$alloc..vec..Vec$LT$std..backtrace_rs..symbolize..gimli..Library$GT$$GT$17h81267f1031d8afa7E', symObjAddr: 0xCE8E8, symBinAddr: 0xCA118, symSize: 0x80 }
  - { offset: 0x3D467, size: 0x8, addend: 0x0, symName: '__ZN4core3ptr104drop_in_place$LT$alloc..vec..Vec$LT$$LP$usize$C$std..backtrace_rs..symbolize..gimli..Mapping$RP$$GT$$GT$17h554cd8b212a3dc73E', symObjAddr: 0xCE968, symBinAddr: 0xCA198, symSize: 0xAC }
  - { offset: 0x3D635, size: 0x8, addend: 0x0, symName: '__ZN4core3ptr95drop_in_place$LT$core..option..IntoIter$LT$std..backtrace_rs..symbolize..gimli..Library$GT$$GT$17ha73b0cfb3aae63c6E', symObjAddr: 0xCEADC, symBinAddr: 0xCA30C, symSize: 0x50 }
  - { offset: 0x3D653, size: 0x8, addend: 0x0, symName: '__ZN4core3ptr95drop_in_place$LT$core..option..IntoIter$LT$std..backtrace_rs..symbolize..gimli..Library$GT$$GT$17ha73b0cfb3aae63c6E', symObjAddr: 0xCEADC, symBinAddr: 0xCA30C, symSize: 0x50 }
  - { offset: 0x3D668, size: 0x8, addend: 0x0, symName: '__ZN4core3ptr95drop_in_place$LT$core..option..IntoIter$LT$std..backtrace_rs..symbolize..gimli..Library$GT$$GT$17ha73b0cfb3aae63c6E', symObjAddr: 0xCEADC, symBinAddr: 0xCA30C, symSize: 0x50 }
  - { offset: 0x3D8C5, size: 0x8, addend: 0x0, symName: '__ZN4core3ptr70drop_in_place$LT$std..backtrace_rs..symbolize..gimli..stash..Stash$GT$17h7382b3e30b41d750E', symObjAddr: 0xCEC7C, symBinAddr: 0xCA4AC, symSize: 0xA0 }
  - { offset: 0x3DE8E, size: 0x8, addend: 0x0, symName: '__ZN4core3ptr65drop_in_place$LT$std..backtrace_rs..symbolize..gimli..Mapping$GT$17h4bdffbb391e18304E', symObjAddr: 0xD2374, symBinAddr: 0xCDBA4, symSize: 0xF8 }
  - { offset: 0x3E3AC, size: 0x8, addend: 0x0, symName: '__ZN4core3ptr86drop_in_place$LT$core..result..Result$LT$addr2line..Lines$C$gimli..read..Error$GT$$GT$17h8300cc809c3f3f8aE', symObjAddr: 0xD4E8C, symBinAddr: 0xD06BC, symSize: 0xAC }
  - { offset: 0x3E617, size: 0x8, addend: 0x0, symName: '__ZN4core3ptr275drop_in_place$LT$gimli..read..line..LineRows$LT$gimli..read..endian_slice..EndianSlice$LT$gimli..endianity..LittleEndian$GT$$C$gimli..read..line..IncompleteLineProgram$LT$gimli..read..endian_slice..EndianSlice$LT$gimli..endianity..LittleEndian$GT$$C$usize$GT$$C$usize$GT$$GT$17h80cbe7352a65736fE', symObjAddr: 0xD521C, symBinAddr: 0xD0A4C, symSize: 0x64 }
  - { offset: 0x3E8E3, size: 0x8, addend: 0x0, symName: '__ZN4core3ptr67drop_in_place$LT$alloc..vec..Vec$LT$addr2line..LineSequence$GT$$GT$17hc20f43175fe5fb80E', symObjAddr: 0xD5280, symBinAddr: 0xD0AB0, symSize: 0x70 }
  - { offset: 0x3EA50, size: 0x8, addend: 0x0, symName: '__ZN4core3ptr77drop_in_place$LT$alloc..boxed..Box$LT$$u5b$alloc..string..String$u5d$$GT$$GT$17h389cbb3d89604e68E', symObjAddr: 0xD52F0, symBinAddr: 0xD0B20, symSize: 0x5C }
  - { offset: 0x3EA67, size: 0x8, addend: 0x0, symName: '__ZN4core3ptr77drop_in_place$LT$alloc..boxed..Box$LT$$u5b$alloc..string..String$u5d$$GT$$GT$17h389cbb3d89604e68E', symObjAddr: 0xD52F0, symBinAddr: 0xD0B20, symSize: 0x5C }
  - { offset: 0x3EBA9, size: 0x8, addend: 0x0, symName: '__ZN4core3ptr65drop_in_place$LT$alloc..vec..Vec$LT$alloc..string..String$GT$$GT$17h9963bc99365af218E', symObjAddr: 0xD56C4, symBinAddr: 0xD0EF4, symSize: 0x70 }
  - { offset: 0x3EF61, size: 0x8, addend: 0x0, symName: '__ZN4core3ptr250drop_in_place$LT$$LP$gimli..read..UnitOffset$C$addr2line..lazy..LazyCell$LT$core..result..Result$LT$addr2line..function..Function$LT$gimli..read..endian_slice..EndianSlice$LT$gimli..endianity..LittleEndian$GT$$GT$$C$gimli..read..Error$GT$$GT$$RP$$GT$17h699aee656a8f6dfcE', symObjAddr: 0xDAAFC, symBinAddr: 0xD6248, symSize: 0x50 }
  - { offset: 0x3EF78, size: 0x8, addend: 0x0, symName: '__ZN4core3ptr250drop_in_place$LT$$LP$gimli..read..UnitOffset$C$addr2line..lazy..LazyCell$LT$core..result..Result$LT$addr2line..function..Function$LT$gimli..read..endian_slice..EndianSlice$LT$gimli..endianity..LittleEndian$GT$$GT$$C$gimli..read..Error$GT$$GT$$RP$$GT$17h699aee656a8f6dfcE', symObjAddr: 0xDAAFC, symBinAddr: 0xD6248, symSize: 0x50 }
  - { offset: 0x3EF8D, size: 0x8, addend: 0x0, symName: '__ZN4core3ptr250drop_in_place$LT$$LP$gimli..read..UnitOffset$C$addr2line..lazy..LazyCell$LT$core..result..Result$LT$addr2line..function..Function$LT$gimli..read..endian_slice..EndianSlice$LT$gimli..endianity..LittleEndian$GT$$GT$$C$gimli..read..Error$GT$$GT$$RP$$GT$17h699aee656a8f6dfcE', symObjAddr: 0xDAAFC, symBinAddr: 0xD6248, symSize: 0x50 }
  - { offset: 0x3EFA2, size: 0x8, addend: 0x0, symName: '__ZN4core3ptr250drop_in_place$LT$$LP$gimli..read..UnitOffset$C$addr2line..lazy..LazyCell$LT$core..result..Result$LT$addr2line..function..Function$LT$gimli..read..endian_slice..EndianSlice$LT$gimli..endianity..LittleEndian$GT$$GT$$C$gimli..read..Error$GT$$GT$$RP$$GT$17h699aee656a8f6dfcE', symObjAddr: 0xDAAFC, symBinAddr: 0xD6248, symSize: 0x50 }
  - { offset: 0x3F0D7, size: 0x8, addend: 0x0, symName: '__ZN4core3ptr273drop_in_place$LT$alloc..vec..Vec$LT$$LP$gimli..read..UnitOffset$C$addr2line..lazy..LazyCell$LT$core..result..Result$LT$addr2line..function..Function$LT$gimli..read..endian_slice..EndianSlice$LT$gimli..endianity..LittleEndian$GT$$GT$$C$gimli..read..Error$GT$$GT$$RP$$GT$$GT$17hb35f5c42951b3060E', symObjAddr: 0xDB73C, symBinAddr: 0xD6E88, symSize: 0x8C }
  - { offset: 0x3F31C, size: 0x8, addend: 0x0, symName: '__ZN4core3ptr285drop_in_place$LT$alloc..boxed..Box$LT$$u5b$$LP$gimli..read..UnitOffset$C$addr2line..lazy..LazyCell$LT$core..result..Result$LT$addr2line..function..Function$LT$gimli..read..endian_slice..EndianSlice$LT$gimli..endianity..LittleEndian$GT$$GT$$C$gimli..read..Error$GT$$GT$$RP$$u5d$$GT$$GT$17h3bf2bc9752ba68fdE', symObjAddr: 0xDB7C8, symBinAddr: 0xD6F14, symSize: 0x78 }
  - { offset: 0x3F333, size: 0x8, addend: 0x0, symName: '__ZN4core3ptr285drop_in_place$LT$alloc..boxed..Box$LT$$u5b$$LP$gimli..read..UnitOffset$C$addr2line..lazy..LazyCell$LT$core..result..Result$LT$addr2line..function..Function$LT$gimli..read..endian_slice..EndianSlice$LT$gimli..endianity..LittleEndian$GT$$GT$$C$gimli..read..Error$GT$$GT$$RP$$u5d$$GT$$GT$17h3bf2bc9752ba68fdE', symObjAddr: 0xDB7C8, symBinAddr: 0xD6F14, symSize: 0x78 }
  - { offset: 0x3F50A, size: 0x8, addend: 0x0, symName: '__ZN4core3ptr184drop_in_place$LT$core..result..Result$LT$addr2line..function..Functions$LT$gimli..read..endian_slice..EndianSlice$LT$gimli..endianity..LittleEndian$GT$$GT$$C$gimli..read..Error$GT$$GT$17hadbc1bd966e7dcd9E', symObjAddr: 0xDB840, symBinAddr: 0xD6F8C, symSize: 0x9C }
  - { offset: 0x3F89A, size: 0x8, addend: 0x0, symName: '__ZN4core3ptr60drop_in_place$LT$gimli..read..abbrev..AbbreviationsCache$GT$17hf0b637549a58e629E', symObjAddr: 0xDF6A0, symBinAddr: 0xDADEC, symSize: 0xD0 }
  - { offset: 0x3FB24, size: 0x8, addend: 0x0, symName: '__ZN4core3ptr280drop_in_place$LT$$LT$alloc..collections..btree..map..IntoIter$LT$K$C$V$C$A$GT$$u20$as$u20$core..ops..drop..Drop$GT$..drop..DropGuard$LT$u64$C$core..result..Result$LT$alloc..sync..Arc$LT$gimli..read..abbrev..Abbreviations$GT$$C$gimli..read..Error$GT$$C$alloc..alloc..Global$GT$$GT$17h9dedcdb999c22661E', symObjAddr: 0xDFA60, symBinAddr: 0xDB1AC, symSize: 0x88 }
  - { offset: 0x3FCCB, size: 0x8, addend: 0x0, symName: '__ZN4core3ptr123drop_in_place$LT$addr2line..Context$LT$gimli..read..endian_slice..EndianSlice$LT$gimli..endianity..LittleEndian$GT$$GT$$GT$17h6b865e36f3642250E', symObjAddr: 0xE0020, symBinAddr: 0xDB76C, symSize: 0xF0 }
  - { offset: 0x3FF60, size: 0x8, addend: 0x0, symName: '__ZN4core3ptr71drop_in_place$LT$std..backtrace_rs..symbolize..gimli..macho..Object$GT$17h63d230d2ca036270E', symObjAddr: 0xE0110, symBinAddr: 0xDB85C, symSize: 0x120 }
  - { offset: 0x402F3, size: 0x8, addend: 0x0, symName: '__ZN4core3ptr158drop_in_place$LT$alloc..boxed..Box$LT$$u5b$addr2line..ResUnit$LT$gimli..read..endian_slice..EndianSlice$LT$gimli..endianity..LittleEndian$GT$$GT$$u5d$$GT$$GT$17h89cf861b8fa0265dE', symObjAddr: 0xE0230, symBinAddr: 0xDB97C, symSize: 0x9C }
  - { offset: 0x4042D, size: 0x8, addend: 0x0, symName: '__ZN4core3ptr123drop_in_place$LT$addr2line..ResUnit$LT$gimli..read..endian_slice..EndianSlice$LT$gimli..endianity..LittleEndian$GT$$GT$$GT$17he18909544a0a550fE', symObjAddr: 0xE02CC, symBinAddr: 0xDBA18, symSize: 0x20C }
  - { offset: 0x40DFF, size: 0x8, addend: 0x0, symName: '__ZN4core3ptr158drop_in_place$LT$alloc..boxed..Box$LT$$u5b$addr2line..SupUnit$LT$gimli..read..endian_slice..EndianSlice$LT$gimli..endianity..LittleEndian$GT$$GT$$u5d$$GT$$GT$17hb21356a44753dd9bE', symObjAddr: 0xE04D8, symBinAddr: 0xDBC24, symSize: 0x128 }
  - { offset: 0x41280, size: 0x8, addend: 0x0, symName: '__ZN4core3ptr181drop_in_place$LT$core..option..Option$LT$gimli..read..line..IncompleteLineProgram$LT$gimli..read..endian_slice..EndianSlice$LT$gimli..endianity..LittleEndian$GT$$C$usize$GT$$GT$$GT$17hb82c814630029841E', symObjAddr: 0xE0600, symBinAddr: 0xDBD4C, symSize: 0x70 }
  - { offset: 0x4154C, size: 0x8, addend: 0x0, symName: '__ZN4core3ptr123drop_in_place$LT$addr2line..SupUnit$LT$gimli..read..endian_slice..EndianSlice$LT$gimli..endianity..LittleEndian$GT$$GT$$GT$17h9c35e925daea645fE', symObjAddr: 0xE0670, symBinAddr: 0xDBDBC, symSize: 0xA4 }
  - { offset: 0x418F9, size: 0x8, addend: 0x0, symName: '__ZN4core3ptr383drop_in_place$LT$core..result..Result$LT$core..option..Option$LT$alloc..boxed..Box$LT$$LP$alloc..sync..Arc$LT$gimli..read..dwarf..Dwarf$LT$gimli..read..endian_slice..EndianSlice$LT$gimli..endianity..LittleEndian$GT$$GT$$GT$$C$gimli..read..dwarf..Unit$LT$gimli..read..endian_slice..EndianSlice$LT$gimli..endianity..LittleEndian$GT$$C$usize$GT$$RP$$GT$$GT$$C$gimli..read..Error$GT$$GT$17h989c3caa13670887E', symObjAddr: 0xE0714, symBinAddr: 0xDBE60, symSize: 0x100 }
  - { offset: 0x41E06, size: 0x8, addend: 0x0, symName: '__ZN4core3ptr137drop_in_place$LT$gimli..read..dwarf..Unit$LT$gimli..read..endian_slice..EndianSlice$LT$gimli..endianity..LittleEndian$GT$$C$usize$GT$$GT$17h7644a65d7e203baeE', symObjAddr: 0xE0814, symBinAddr: 0xDBF60, symSize: 0xA4 }
  - { offset: 0x42198, size: 0x8, addend: 0x0, symName: '__ZN4core3ptr87drop_in_place$LT$alloc..sync..ArcInner$LT$std..sys..pal..unix..fs..InnerReadDir$GT$$GT$17hd31b3bfe46190f39E', symObjAddr: 0xE0A24, symBinAddr: 0xDC0CC, symSize: 0x58 }
  - { offset: 0x42390, size: 0x8, addend: 0x0, symName: '__ZN4core3ptr159drop_in_place$LT$alloc..sync..ArcInner$LT$gimli..read..dwarf..Dwarf$LT$gimli..read..endian_slice..EndianSlice$LT$gimli..endianity..LittleEndian$GT$$GT$$GT$$GT$17ha1fffdb15657033fE', symObjAddr: 0xE0D1C, symBinAddr: 0xDC3C4, symSize: 0x58 }
  - { offset: 0x42476, size: 0x8, addend: 0x0, symName: '__ZN4core3ptr146drop_in_place$LT$alloc..vec..Vec$LT$addr2line..ResUnit$LT$gimli..read..endian_slice..EndianSlice$LT$gimli..endianity..LittleEndian$GT$$GT$$GT$$GT$17h5b45cb3f300a8562E', symObjAddr: 0xE37C4, symBinAddr: 0xDEDA4, symSize: 0xAC }
  - { offset: 0x4260C, size: 0x8, addend: 0x0, symName: '__ZN4core3ptr146drop_in_place$LT$alloc..vec..Vec$LT$addr2line..SupUnit$LT$gimli..read..endian_slice..EndianSlice$LT$gimli..endianity..LittleEndian$GT$$GT$$GT$$GT$17h822805e3d6073577E', symObjAddr: 0xE3870, symBinAddr: 0xDEE50, symSize: 0x138 }
  - { offset: 0x42B1D, size: 0x8, addend: 0x0, symName: '__ZN4core3ptr130drop_in_place$LT$gimli..read..dwarf..Dwarf$LT$gimli..read..endian_slice..EndianSlice$LT$gimli..endianity..LittleEndian$GT$$GT$$GT$17h3180f50105ad683eE', symObjAddr: 0xE4164, symBinAddr: 0xDF744, symSize: 0x58 }
  - { offset: 0x42C00, size: 0x8, addend: 0x0, symName: '__ZN4core3ptr55drop_in_place$LT$gimli..read..abbrev..Abbreviations$GT$17hbdfb8afbeefc1fe9E', symObjAddr: 0xE4F0C, symBinAddr: 0xE04EC, symSize: 0xFC }
  - { offset: 0x42F85, size: 0x8, addend: 0x0, symName: '__ZN4core3ptr84drop_in_place$LT$alloc..sync..ArcInner$LT$gimli..read..abbrev..Abbreviations$GT$$GT$17h9817d88c89f5ffa3E', symObjAddr: 0xE5008, symBinAddr: 0xE05E8, symSize: 0xFC }
  - { offset: 0x4335B, size: 0x8, addend: 0x0, symName: '__ZN4core3ptr144drop_in_place$LT$alloc..vec..Vec$LT$core..option..Option$LT$core..option..Option$LT$std..backtrace_rs..symbolize..gimli..Mapping$GT$$GT$$GT$$GT$17h15ba45d154702d72E', symObjAddr: 0xE72C8, symBinAddr: 0xE2524, symSize: 0xFC }
  - { offset: 0x435AF, size: 0x8, addend: 0x0, symName: '__ZN4core3ptr72drop_in_place$LT$core..option..Option$LT$object..read..ObjectMap$GT$$GT$17h1b78279f331224d5E', symObjAddr: 0xE7D38, symBinAddr: 0xE2F50, symSize: 0x50 }
  - { offset: 0x437F6, size: 0x8, addend: 0x0, symName: '__ZN4core3ptr66drop_in_place$LT$std..backtrace_rs..backtrace..libunwind..Bomb$GT$17h76e17fb1416c81e7E', symObjAddr: 0xEAC48, symBinAddr: 0xE5C40, symSize: 0x38 }
  - { offset: 0x43863, size: 0x8, addend: 0x0, symName: '__ZN4core3ptr71drop_in_place$LT$std..sync..rwlock..RwLockReadGuard$LT$$LP$$RP$$GT$$GT$17hbdc4faa3786318e1E', symObjAddr: 0xEB1F0, symBinAddr: 0xE60E8, symSize: 0x68 }
  - { offset: 0x438FC, size: 0x8, addend: 0x0, symName: '__ZN4core3ptr56drop_in_place$LT$std..sys..sync..rwlock..queue..Node$GT$17h313e45d29194d014E', symObjAddr: 0xEB4C8, symBinAddr: 0xE6370, symSize: 0x44 }
  - { offset: 0x43A02, size: 0x8, addend: 0x0, symName: '__ZN4core3ptr62drop_in_place$LT$std..sys..sync..rwlock..queue..PanicGuard$GT$17h331ef422a59669f8E', symObjAddr: 0xEB620, symBinAddr: 0xE63B4, symSize: 0x3C }
  - { offset: 0x43A55, size: 0x8, addend: 0x0, symName: '__ZN4core3ptr128drop_in_place$LT$core..result..Result$LT$$RF$std..thread..Thread$C$$LP$$RF$std..thread..Thread$C$std..thread..Thread$RP$$GT$$GT$17h322cf4ddef680bd1E', symObjAddr: 0xEB65C, symBinAddr: 0xE63F0, symSize: 0x44 }
  - { offset: 0x43B6D, size: 0x8, addend: 0x0, symName: '__ZN4core3ptr107drop_in_place$LT$alloc..vec..Vec$LT$$LP$std..ffi..os_str..OsString$C$std..ffi..os_str..OsString$RP$$GT$$GT$17h035ca6e11797c5fcE', symObjAddr: 0xEBD9C, symBinAddr: 0xE6AEC, symSize: 0x80 }
  - { offset: 0x43F0B, size: 0x8, addend: 0x0, symName: '__ZN4core3ptr107drop_in_place$LT$core..option..Option$LT$std..sys..pal..unix..process..process_common..CStringArray$GT$$GT$17h4e9e87bd21a76a2dE', symObjAddr: 0xEDF8C, symBinAddr: 0xE8A40, symSize: 0x98 }
  - { offset: 0x44190, size: 0x8, addend: 0x0, symName: '__ZN4core3ptr77drop_in_place$LT$std..sys..pal..unix..process..process_common..ChildPipes$GT$17hf4698d526de6ee74E', symObjAddr: 0xEE378, symBinAddr: 0xE8E2C, symSize: 0x78 }
  - { offset: 0x442AB, size: 0x8, addend: 0x0, symName: '__ZN4core3ptr77drop_in_place$LT$std..sys..pal..unix..process..process_common..StdioPipes$GT$17h2027d366927319b4E', symObjAddr: 0xEE3F0, symBinAddr: 0xE8EA4, symSize: 0x54 }
  - { offset: 0x44420, size: 0x8, addend: 0x0, symName: '__ZN4core3ptr124drop_in_place$LT$alloc..collections..btree..map..BTreeMap$LT$std..ffi..os_str..OsString$C$std..ffi..os_str..OsString$GT$$GT$17hc09adac1108d372cE', symObjAddr: 0xEE6E0, symBinAddr: 0xE9194, symSize: 0xBC }
  - { offset: 0x446A1, size: 0x8, addend: 0x0, symName: '__ZN4core3ptr37drop_in_place$LT$std..env..VarsOs$GT$17hc4fee3c879623c1fE', symObjAddr: 0xEE79C, symBinAddr: 0xE9250, symSize: 0x98 }
  - { offset: 0x44A46, size: 0x8, addend: 0x0, symName: '__ZN4core3ptr70drop_in_place$LT$alloc..vec..Vec$LT$alloc..ffi..c_str..CString$GT$$GT$17hfad7f04c97374e1bE', symObjAddr: 0xEF6E0, symBinAddr: 0xEA194, symSize: 0x70 }
  - { offset: 0x44BC8, size: 0x8, addend: 0x0, symName: '__ZN4core3ptr79drop_in_place$LT$std..sys..pal..unix..process..process_common..CStringArray$GT$17h1dfcf64b63112903E', symObjAddr: 0xEF750, symBinAddr: 0xEA204, symSize: 0x80 }
  - { offset: 0x44E51, size: 0x8, addend: 0x0, symName: '__ZN4core3ptr124drop_in_place$LT$alloc..collections..btree..map..IntoIter$LT$std..ffi..os_str..OsString$C$std..ffi..os_str..OsString$GT$$GT$17h0af45dc5b19b9191E', symObjAddr: 0xEF95C, symBinAddr: 0xEA410, symSize: 0x8C }
  - { offset: 0x451AA, size: 0x8, addend: 0x0, symName: '__ZN4core3ptr78drop_in_place$LT$core..result..Result$LT$usize$C$std..io..error..Error$GT$$GT$17hba98464192eae76aE', symObjAddr: 0xF2664, symBinAddr: 0xED020, symSize: 0x98 }
  - { offset: 0x4556F, size: 0x8, addend: 0x0, symName: '__ZN4core3ptr77drop_in_place$LT$std..panicking..begin_panic_handler..FormatStringPayload$GT$17h67bb243b7260168aE', symObjAddr: 0xF6494, symBinAddr: 0xF0E00, symSize: 0x30 }
  - { offset: 0x45718, size: 0x8, addend: 0x0, symName: '__ZN4core3ptr112drop_in_place$LT$$LP$std..ffi..os_str..OsString$C$core..option..Option$LT$std..ffi..os_str..OsString$GT$$RP$$GT$17h60026e43d9af69f9E', symObjAddr: 0xF7350, symBinAddr: 0xF1CBC, symSize: 0x50 }
  - { offset: 0x46746, size: 0x8, addend: 0x0, symName: '__ZN4core3fmt3num52_$LT$impl$u20$core..fmt..Debug$u20$for$u20$usize$GT$3fmt17hbdb2109e8331f94aE.4852', symObjAddr: 0xCC59C, symBinAddr: 0xC803C, symSize: 0x1F8 }
  - { offset: 0x468DB, size: 0x8, addend: 0x0, symName: '__ZN4core3fmt3num50_$LT$impl$u20$core..fmt..Debug$u20$for$u20$i32$GT$3fmt17h203f981ecfe3a45fE.4845', symObjAddr: 0xCBE44, symBinAddr: 0xC7924, symSize: 0xE0 }
  - { offset: 0x469FA, size: 0x8, addend: 0x0, symName: '__ZN42_$LT$$RF$T$u20$as$u20$core..fmt..Debug$GT$3fmt17h3b4b3b0e7d1d7e59E', symObjAddr: 0xCB00C, symBinAddr: 0xC6CA0, symSize: 0x1FC }
  - { offset: 0x46BB3, size: 0x8, addend: 0x0, symName: '__ZN42_$LT$$RF$T$u20$as$u20$core..fmt..Debug$GT$3fmt17hb01ec662a4c81d8dE', symObjAddr: 0xCBDE4, symBinAddr: 0xC78C4, symSize: 0x1C }
  - { offset: 0x46BE3, size: 0x8, addend: 0x0, symName: '__ZN42_$LT$$RF$T$u20$as$u20$core..fmt..Debug$GT$3fmt17h44665b415403ce03E', symObjAddr: 0xCD270, symBinAddr: 0xC8BE4, symSize: 0xE4 }
  - { offset: 0x46D0C, size: 0x8, addend: 0x0, symName: '__ZN42_$LT$$RF$T$u20$as$u20$core..fmt..Debug$GT$3fmt17h62e695db5ed13a4dE', symObjAddr: 0xCD4BC, symBinAddr: 0xC8E30, symSize: 0xB8 }
  - { offset: 0x46EDD, size: 0x8, addend: 0x0, symName: '__ZN42_$LT$$RF$T$u20$as$u20$core..fmt..Debug$GT$3fmt17h922faf32d38f117dE', symObjAddr: 0xEBE3C, symBinAddr: 0xE6B8C, symSize: 0x20 }
  - { offset: 0x46FFD, size: 0x8, addend: 0x0, symName: '__ZN42_$LT$$RF$T$u20$as$u20$core..fmt..Debug$GT$3fmt17h0cb98b9fda046a15E', symObjAddr: 0xEBF3C, symBinAddr: 0xE6C8C, symSize: 0x20 }
  - { offset: 0x47047, size: 0x8, addend: 0x0, symName: '__ZN42_$LT$$RF$T$u20$as$u20$core..fmt..Debug$GT$3fmt17h4ce891866a7f16eeE', symObjAddr: 0xF2928, symBinAddr: 0xED2A0, symSize: 0xB8 }
  - { offset: 0x471A2, size: 0x8, addend: 0x0, symName: '__ZN42_$LT$$RF$T$u20$as$u20$core..fmt..Debug$GT$3fmt17h530d987391eb5b89E', symObjAddr: 0xF29E0, symBinAddr: 0xED358, symSize: 0xE8 }
  - { offset: 0x472E0, size: 0x8, addend: 0x0, symName: __ZN4core3fmt5Write10write_char17h5d53dadac8735cc1E, symObjAddr: 0xCC144, symBinAddr: 0xC7C24, symSize: 0x1E0 }
  - { offset: 0x47702, size: 0x8, addend: 0x0, symName: __ZN4core3fmt5Write9write_fmt17h5bf1c5b5c05bbc85E, symObjAddr: 0xCC324, symBinAddr: 0xC7E04, symSize: 0x1C }
  - { offset: 0x47730, size: 0x8, addend: 0x0, symName: __ZN4core3fmt5Write10write_char17ha7bccd0c0120d52cE, symObjAddr: 0xED638, symBinAddr: 0xE80EC, symSize: 0x1B4 }
  - { offset: 0x479F2, size: 0x8, addend: 0x0, symName: __ZN4core3fmt5Write9write_fmt17ha80adcbef64cf89bE, symObjAddr: 0xED7EC, symBinAddr: 0xE82A0, symSize: 0x1C }
  - { offset: 0x47A20, size: 0x8, addend: 0x0, symName: __ZN4core3fmt5Write10write_char17h447e2548e7193a0bE, symObjAddr: 0xED9C0, symBinAddr: 0xE8474, symSize: 0x1B4 }
  - { offset: 0x47CE2, size: 0x8, addend: 0x0, symName: __ZN4core3fmt5Write9write_fmt17hff3cd3e4053c9757E, symObjAddr: 0xEDB74, symBinAddr: 0xE8628, symSize: 0x1C }
  - { offset: 0x47D10, size: 0x8, addend: 0x0, symName: __ZN4core3fmt5Write9write_fmt17h9724364339f7d01aE, symObjAddr: 0xF856C, symBinAddr: 0xF2DFC, symSize: 0x1C }
  - { offset: 0x47DD2, size: 0x8, addend: 0x0, symName: '__ZN50_$LT$$BP$mut$u20$T$u20$as$u20$core..fmt..Debug$GT$3fmt17hd272e9ec322df4ffE', symObjAddr: 0xEBB78, symBinAddr: 0xE690C, symSize: 0xCC }
  - { offset: 0x47F26, size: 0x8, addend: 0x0, symName: '__ZN44_$LT$$RF$T$u20$as$u20$core..fmt..Display$GT$3fmt17h16da4b9537ee597dE', symObjAddr: 0xF76B0, symBinAddr: 0xF1FD8, symSize: 0x68 }
  - { offset: 0x48BD1, size: 0x8, addend: 0x0, symName: '__ZN4core4cell4once17OnceCell$LT$T$GT$8try_init17h5e59df7be681dbf4E', symObjAddr: 0xEB50C, symBinAddr: 0x1070B4, symSize: 0x114 }
  - { offset: 0x49EF9, size: 0x8, addend: 0x0, symName: __ZN4core9panicking13assert_failed17hb45ed8d127a1404bE, symObjAddr: 0xCAF70, symBinAddr: 0x1069A0, symSize: 0x30 }
  - { offset: 0x49F14, size: 0x8, addend: 0x0, symName: __ZN4core9panicking13assert_failed17hc61aab90d596ed60E, symObjAddr: 0xCD240, symBinAddr: 0x106B80, symSize: 0x30 }
  - { offset: 0x49F2E, size: 0x8, addend: 0x0, symName: __ZN4core9panicking13assert_failed17h5d1d729ad2a62170E, symObjAddr: 0xF28E4, symBinAddr: 0x10755C, symSize: 0x44 }
  - { offset: 0x4ADC5, size: 0x8, addend: 0x0, symName: '__ZN70_$LT$core..num..error..TryFromIntError$u20$as$u20$core..fmt..Debug$GT$3fmt17hc179d230323b5c29E.4909', symObjAddr: 0xEBE5C, symBinAddr: 0xE6BAC, symSize: 0xE0 }
  - { offset: 0x4AEEB, size: 0x8, addend: 0x0, symName: '__ZN4core3ops8function6FnOnce40call_once$u7b$$u7b$vtable.shim$u7d$$u7d$17h87161ec4028be573E', symObjAddr: 0xCC490, symBinAddr: 0xC7F70, symSize: 0x18 }
  - { offset: 0x4AF3A, size: 0x8, addend: 0x0, symName: '__ZN4core3ops8function6FnOnce40call_once$u7b$$u7b$vtable.shim$u7d$$u7d$17h44c88cc727d64614E', symObjAddr: 0xCC4C0, symBinAddr: 0xC7FA0, symSize: 0x18 }
  - { offset: 0x4AFB9, size: 0x8, addend: 0x0, symName: '__ZN4core3ops8function6FnOnce40call_once$u7b$$u7b$vtable.shim$u7d$$u7d$17h8aaebce9ea58e4a1E', symObjAddr: 0xECF14, symBinAddr: 0xE7AE8, symSize: 0x70 }
  - { offset: 0x4B18C, size: 0x8, addend: 0x0, symName: '__ZN4core3ops8function6FnOnce40call_once$u7b$$u7b$vtable.shim$u7d$$u7d$17hd30a77ad8b790f71E', symObjAddr: 0xF3408, symBinAddr: 0xEDD74, symSize: 0x10 }
  - { offset: 0x4B1C6, size: 0x8, addend: 0x0, symName: '__ZN4core3ops8function6FnOnce40call_once$u7b$$u7b$vtable.shim$u7d$$u7d$17h13a6b0c24e9e6903E', symObjAddr: 0xF64C4, symBinAddr: 0xF0E30, symSize: 0xB0 }
  - { offset: 0x4CE20, size: 0x8, addend: 0x0, symName: __ZN4core5slice4sort8unstable7ipnsort17hf1df890749a57ee3E, symObjAddr: 0xE73C4, symBinAddr: 0xE2620, symSize: 0x1A4 }
  - { offset: 0x4CF3C, size: 0x8, addend: 0x0, symName: __ZN4core5slice4sort8unstable7ipnsort17h570ba9baf54e75a6E, symObjAddr: 0xE761C, symBinAddr: 0xE2878, symSize: 0x244 }
  - { offset: 0x4D236, size: 0x8, addend: 0x0, symName: __ZN4core5slice4sort8unstable9quicksort9quicksort17h38671c85fd0cacc2E, symObjAddr: 0xE8BA0, symBinAddr: 0xE3DB8, symSize: 0x5B4 }
  - { offset: 0x4DE5A, size: 0x8, addend: 0x0, symName: __ZN4core5slice4sort8unstable9quicksort9quicksort17hbe387690685a1872E, symObjAddr: 0xE9948, symBinAddr: 0xE4B60, symSize: 0x440 }
  - { offset: 0x4E6EC, size: 0x8, addend: 0x0, symName: __ZN4core5slice4sort8unstable8heapsort8heapsort17he8bd85734b02f1fcE, symObjAddr: 0xE9534, symBinAddr: 0xE474C, symSize: 0x160 }
  - { offset: 0x4E9FB, size: 0x8, addend: 0x0, symName: __ZN4core5slice4sort8unstable8heapsort8heapsort17h3bfc310a8b22b7ccE, symObjAddr: 0xEA220, symBinAddr: 0xE5438, symSize: 0x10C }
  - { offset: 0x4EC27, size: 0x8, addend: 0x0, symName: __ZN4core5slice4sort6stable14driftsort_main17hc1768f3bf38aec53E, symObjAddr: 0xD534C, symBinAddr: 0xD0B7C, symSize: 0x120 }
  - { offset: 0x4F098, size: 0x8, addend: 0x0, symName: __ZN4core5slice4sort6stable5drift4sort17h17aa28f081c4a7a6E, symObjAddr: 0xD5E88, symBinAddr: 0xD15D4, symSize: 0x5B8 }
  - { offset: 0x4F7D6, size: 0x8, addend: 0x0, symName: __ZN4core5slice4sort6stable5drift4sort17h015b846e08754a9fE, symObjAddr: 0xDD318, symBinAddr: 0xD8A64, symSize: 0x6F0 }
  - { offset: 0x4FF52, size: 0x8, addend: 0x0, symName: __ZN4core5slice4sort6stable5drift4sort17hde2de3c55f28f1ccE, symObjAddr: 0xDE7D8, symBinAddr: 0xD9F24, symSize: 0x614 }
  - { offset: 0x50667, size: 0x8, addend: 0x0, symName: __ZN4core5slice4sort6stable5drift4sort17h2a75905af51625f8E, symObjAddr: 0xE41BC, symBinAddr: 0xDF79C, symSize: 0x5B0 }
  - { offset: 0x50D68, size: 0x8, addend: 0x0, symName: __ZN4core5slice4sort6stable5drift4sort17haed293010cbdd2caE, symObjAddr: 0xE6268, symBinAddr: 0xE1848, symSize: 0x4D4 }
  - { offset: 0x51448, size: 0x8, addend: 0x0, symName: __ZN4core5slice4sort6stable5drift4sort17hc7f9f68490e940f2E, symObjAddr: 0xE7D88, symBinAddr: 0xE2FA0, symSize: 0x538 }
  - { offset: 0x51DA1, size: 0x8, addend: 0x0, symName: __ZN4core5slice4sort6stable9quicksort9quicksort17h07c2ad961e258bf6E, symObjAddr: 0xD6440, symBinAddr: 0xD1B8C, symSize: 0x6BC }
  - { offset: 0x5281C, size: 0x8, addend: 0x0, symName: __ZN4core5slice4sort6stable9quicksort9quicksort17h4313d4c7b4ad0ab9E, symObjAddr: 0xDDA08, symBinAddr: 0xD9154, symSize: 0x720 }
  - { offset: 0x52F22, size: 0x8, addend: 0x0, symName: __ZN4core5slice4sort6stable9quicksort9quicksort17h2755ce9b6a022da6E, symObjAddr: 0xDEDEC, symBinAddr: 0xDA538, symSize: 0x7E4 }
  - { offset: 0x53ADF, size: 0x8, addend: 0x0, symName: __ZN4core5slice4sort6stable9quicksort9quicksort17h9a0124444fc3d9d1E, symObjAddr: 0xE476C, symBinAddr: 0xDFD4C, symSize: 0x6D4 }
  - { offset: 0x5455A, size: 0x8, addend: 0x0, symName: __ZN4core5slice4sort6stable9quicksort9quicksort17h241fe5fae56b035cE, symObjAddr: 0xE673C, symBinAddr: 0xE1D1C, symSize: 0x808 }
  - { offset: 0x55603, size: 0x8, addend: 0x0, symName: __ZN4core5slice4sort6stable9quicksort9quicksort17hd41f6b1c8dfed784E, symObjAddr: 0xE82C0, symBinAddr: 0xE34D8, symSize: 0x810 }
  - { offset: 0x561C3, size: 0x8, addend: 0x0, symName: __ZN4core5slice4sort6stable14driftsort_main17h357f62adcadd0827E, symObjAddr: 0xD8C54, symBinAddr: 0xD43A0, symSize: 0x134 }
  - { offset: 0x56555, size: 0x8, addend: 0x0, symName: __ZN4core5slice4sort6stable14driftsort_main17h801a49988ac95e60E, symObjAddr: 0xDCB08, symBinAddr: 0xD8254, symSize: 0x118 }
  - { offset: 0x568A5, size: 0x8, addend: 0x0, symName: __ZN4core5slice4sort6stable14driftsort_main17h235089c2da1fb2f7E, symObjAddr: 0xE10D4, symBinAddr: 0xDC77C, symSize: 0x118 }
  - { offset: 0x56BF5, size: 0x8, addend: 0x0, symName: __ZN4core5slice4sort6stable14driftsort_main17h26013f2a2afed6c9E, symObjAddr: 0xE3600, symBinAddr: 0xDEBE0, symSize: 0x118 }
  - { offset: 0x56F45, size: 0x8, addend: 0x0, symName: __ZN4core5slice4sort6stable14driftsort_main17h9125827666859264E, symObjAddr: 0xE7954, symBinAddr: 0xE2BB0, symSize: 0x134 }
  - { offset: 0x5736B, size: 0x8, addend: 0x0, symName: __ZN4core5slice4sort6shared9smallsort25insertion_sort_shift_left17h6eebe7488f1fda13E, symObjAddr: 0xD546C, symBinAddr: 0xD0C9C, symSize: 0xB0 }
  - { offset: 0x57534, size: 0x8, addend: 0x0, symName: __ZN4core5slice4sort6shared9smallsort25insertion_sort_shift_left17h99ace36e15ef35a8E, symObjAddr: 0xD8D88, symBinAddr: 0xD44D4, symSize: 0xA8 }
  - { offset: 0x575E9, size: 0x8, addend: 0x0, symName: __ZN4core5slice4sort6shared9smallsort25insertion_sort_shift_left17hfe1c4cee2a5b93edE, symObjAddr: 0xDCC20, symBinAddr: 0xD836C, symSize: 0xC4 }
  - { offset: 0x5772F, size: 0x8, addend: 0x0, symName: __ZN4core5slice4sort6shared9smallsort12sort4_stable17hd097c0d8d854db27E, symObjAddr: 0xDE128, symBinAddr: 0xD9874, symSize: 0x1B4 }
  - { offset: 0x5791F, size: 0x8, addend: 0x0, symName: __ZN4core5slice4sort6shared9smallsort25insertion_sort_shift_left17h6e44e631d56ebf03E, symObjAddr: 0xE3718, symBinAddr: 0xDECF8, symSize: 0xAC }
  - { offset: 0x57A54, size: 0x8, addend: 0x0, symName: __ZN4core5slice4sort6shared9smallsort25insertion_sort_shift_left17h48b1b382cbc01c19E, symObjAddr: 0xE7568, symBinAddr: 0xE27C4, symSize: 0xB4 }
  - { offset: 0x57B21, size: 0x8, addend: 0x0, symName: __ZN4core5slice4sort6shared9smallsort25insertion_sort_shift_left17h13b8d464043e6663E, symObjAddr: 0xE7860, symBinAddr: 0xE2ABC, symSize: 0xF4 }
  - { offset: 0x57CD8, size: 0x8, addend: 0x0, symName: __ZN4core5slice4sort6shared9smallsort25insertion_sort_shift_left17h67c4a31b98bbd239E, symObjAddr: 0xE7A88, symBinAddr: 0xE2CE4, symSize: 0xC4 }
  - { offset: 0x57E47, size: 0x8, addend: 0x0, symName: __ZN4core5slice4sort6shared9smallsort18small_sort_general17h6f108fd9f4ceb9b2E, symObjAddr: 0xE9154, symBinAddr: 0xE436C, symSize: 0x3E0 }
  - { offset: 0x58348, size: 0x8, addend: 0x0, symName: __ZN4core5slice4sort6shared9smallsort12sort4_stable17h6c045a2dd3d2cc75E, symObjAddr: 0xE97C8, symBinAddr: 0xE49E0, symSize: 0x180 }
  - { offset: 0x58770, size: 0x8, addend: 0x0, symName: __ZN4core5slice4sort6shared9smallsort18small_sort_general17h6036d4586f05dcacE, symObjAddr: 0xE9D88, symBinAddr: 0xE4FA0, symSize: 0x498 }
  - { offset: 0x58E60, size: 0x8, addend: 0x0, symName: __ZN4core5slice4sort6shared5pivot11median3_rec17h0362308a2bf4f4f0E, symObjAddr: 0xD6AFC, symBinAddr: 0xD2248, symSize: 0xCC }
  - { offset: 0x58F63, size: 0x8, addend: 0x0, symName: __ZN4core5slice4sort6shared5pivot11median3_rec17hef487cab737d7119E, symObjAddr: 0xDE2DC, symBinAddr: 0xD9A28, symSize: 0x11C }
  - { offset: 0x59068, size: 0x8, addend: 0x0, symName: __ZN4core5slice4sort6shared5pivot11median3_rec17hb52eafd2454ea0a8E, symObjAddr: 0xDF5D0, symBinAddr: 0xDAD1C, symSize: 0xD0 }
  - { offset: 0x5916B, size: 0x8, addend: 0x0, symName: __ZN4core5slice4sort6shared5pivot11median3_rec17h7d64daeb78275914E, symObjAddr: 0xE4E40, symBinAddr: 0xE0420, symSize: 0xCC }
  - { offset: 0x59286, size: 0x8, addend: 0x0, symName: __ZN4core5slice4sort6shared5pivot11median3_rec17hd55eabca7957e7b8E, symObjAddr: 0xE8AD0, symBinAddr: 0xE3CE8, symSize: 0xD0 }
  - { offset: 0x59389, size: 0x8, addend: 0x0, symName: __ZN4core5slice4sort6shared5pivot11median3_rec17h071e82f5e2c5a253E, symObjAddr: 0xE9694, symBinAddr: 0xE48AC, symSize: 0x134 }
  - { offset: 0x595B8, size: 0x8, addend: 0x0, symName: __ZN4core5slice4sort6shared5pivot11median3_rec17h57130d0b0394e93cE, symObjAddr: 0xEA32C, symBinAddr: 0xE5544, symSize: 0xD0 }
  - { offset: 0x5A8ED, size: 0x8, addend: 0x0, symName: '__ZN55_$LT$$RF$str$u20$as$u20$core..str..pattern..Pattern$GT$15is_contained_in17h7671e27a68c24da0E', symObjAddr: 0xF6108, symBinAddr: 0xF0A74, symSize: 0x38C }
  - { offset: 0x5B1E0, size: 0x8, addend: 0x0, symName: '__ZN4core5array69_$LT$impl$u20$core..fmt..Debug$u20$for$u20$$u5b$T$u3b$$u20$N$u5d$$GT$3fmt17hd07882f80d8ede90E', symObjAddr: 0xF279C, symBinAddr: 0xED158, symSize: 0x148 }
  - { offset: 0x5B384, size: 0x8, addend: 0x0, symName: __ZN4core5panic12PanicPayload6as_str17h8b7fc3763496ea90E, symObjAddr: 0xF0688, symBinAddr: 0xEB13C, symSize: 0x14 }
  - { offset: 0x5B457, size: 0x8, addend: 0x0, symName: '__ZN36_$LT$T$u20$as$u20$core..any..Any$GT$7type_id17h9573d4b1ab3f1e9eE', symObjAddr: 0xF8108, symBinAddr: 0xF2998, symSize: 0x30 }
  - { offset: 0x5B470, size: 0x8, addend: 0x0, symName: '__ZN36_$LT$T$u20$as$u20$core..any..Any$GT$7type_id17h231d3d557948a87cE', symObjAddr: 0xF8370, symBinAddr: 0xF2C00, symSize: 0x30 }
  - { offset: 0x5C355, size: 0x8, addend: 0x0, symName: '__ZN5alloc7raw_vec19RawVec$LT$T$C$A$GT$8grow_one17h873ca27f2d8dfa9cE', symObjAddr: 0xCCF84, symBinAddr: 0xC8928, symSize: 0x108 }
  - { offset: 0x5C4FA, size: 0x8, addend: 0x0, symName: '__ZN5alloc7raw_vec19RawVec$LT$T$C$A$GT$8grow_one17h367fbaeba98521bcE', symObjAddr: 0xCEA14, symBinAddr: 0xCA244, symSize: 0xC8 }
  - { offset: 0x5C7E1, size: 0x8, addend: 0x0, symName: '__ZN5alloc7raw_vec19RawVec$LT$T$C$A$GT$8grow_one17hf5ea3f308434ffa9E', symObjAddr: 0xD246C, symBinAddr: 0xCDC9C, symSize: 0xE4 }
  - { offset: 0x5CA38, size: 0x8, addend: 0x0, symName: '__ZN5alloc7raw_vec19RawVec$LT$T$C$A$GT$8grow_one17h5bd902a2e2b21ceaE', symObjAddr: 0xD5154, symBinAddr: 0xD0984, symSize: 0xC8 }
  - { offset: 0x5CBDB, size: 0x8, addend: 0x0, symName: '__ZN5alloc7raw_vec19RawVec$LT$T$C$A$GT$8grow_one17hc3ca8b4ebcca308bE', symObjAddr: 0xD551C, symBinAddr: 0xD0D4C, symSize: 0xE4 }
  - { offset: 0x5CD72, size: 0x8, addend: 0x0, symName: '__ZN5alloc7raw_vec19RawVec$LT$T$C$A$GT$8grow_one17h50046fade9464f45E', symObjAddr: 0xD5600, symBinAddr: 0xD0E30, symSize: 0xC4 }
  - { offset: 0x5CFBE, size: 0x8, addend: 0x0, symName: '__ZN5alloc7raw_vec19RawVec$LT$T$C$A$GT$8grow_one17h3e3ec63c04c54403E', symObjAddr: 0xD9A30, symBinAddr: 0xD517C, symSize: 0xE4 }
  - { offset: 0x5D155, size: 0x8, addend: 0x0, symName: '__ZN5alloc7raw_vec19RawVec$LT$T$C$A$GT$8grow_one17h236b31807a3f3564E', symObjAddr: 0xDAA18, symBinAddr: 0xD6164, symSize: 0xE4 }
  - { offset: 0x5D32C, size: 0x8, addend: 0x0, symName: '__ZN5alloc7raw_vec19RawVec$LT$T$C$A$GT$8grow_one17hb7ab33213cbc478fE', symObjAddr: 0xDE3F8, symBinAddr: 0xD9B44, symSize: 0xE4 }
  - { offset: 0x5D4C3, size: 0x8, addend: 0x0, symName: '__ZN5alloc7raw_vec19RawVec$LT$T$C$A$GT$8grow_one17h00aeb10c65fb6dbaE', symObjAddr: 0xDE4DC, symBinAddr: 0xD9C28, symSize: 0xC4 }
  - { offset: 0x5D65A, size: 0x8, addend: 0x0, symName: '__ZN5alloc7raw_vec19RawVec$LT$T$C$A$GT$8grow_one17h2d71c1fafdab5f6bE', symObjAddr: 0xDFC74, symBinAddr: 0xDB3C0, symSize: 0xC4 }
  - { offset: 0x5D7F1, size: 0x8, addend: 0x0, symName: '__ZN5alloc7raw_vec19RawVec$LT$T$C$A$GT$8grow_one17hbb3603aaf13981d0E', symObjAddr: 0xE1010, symBinAddr: 0xDC6B8, symSize: 0xC4 }
  - { offset: 0x5D9AE, size: 0x8, addend: 0x0, symName: '__ZN5alloc7raw_vec19RawVec$LT$T$C$A$GT$8grow_one17h083983a66fe8a9f9E', symObjAddr: 0xE3520, symBinAddr: 0xDEB00, symSize: 0xE0 }
  - { offset: 0x5DB51, size: 0x8, addend: 0x0, symName: '__ZN5alloc7raw_vec19RawVec$LT$T$C$A$GT$8grow_one17hfef422bb445c381aE', symObjAddr: 0xE39A8, symBinAddr: 0xDEF88, symSize: 0xE0 }
  - { offset: 0x5DD0E, size: 0x8, addend: 0x0, symName: '__ZN5alloc7raw_vec19RawVec$LT$T$C$A$GT$8grow_one17h6487c8aea6f28cddE', symObjAddr: 0xE61A4, symBinAddr: 0xE1784, symSize: 0xC4 }
  - { offset: 0x5DEB1, size: 0x8, addend: 0x0, symName: '__ZN5alloc7raw_vec19RawVec$LT$T$C$A$GT$8grow_one17hbda8dd2aeafbf633E', symObjAddr: 0xE7B4C, symBinAddr: 0xE2DA8, symSize: 0xC4 }
  - { offset: 0x5E048, size: 0x8, addend: 0x0, symName: '__ZN5alloc7raw_vec19RawVec$LT$T$C$A$GT$8grow_one17h070c462be7332ad0E', symObjAddr: 0xE7C10, symBinAddr: 0xE2E6C, symSize: 0xE4 }
  - { offset: 0x5E1DF, size: 0x8, addend: 0x0, symName: '__ZN5alloc7raw_vec19RawVec$LT$T$C$A$GT$8grow_one17h6a25ad33a755e201E', symObjAddr: 0xEBC74, symBinAddr: 0xE6A08, symSize: 0xE4 }
  - { offset: 0x5E41E, size: 0x8, addend: 0x0, symName: '__ZN5alloc7raw_vec19RawVec$LT$T$C$A$GT$8grow_one17h55fdaf5df582b894E', symObjAddr: 0xEF9E8, symBinAddr: 0xEA49C, symSize: 0xC8 }
  - { offset: 0x5E76C, size: 0x8, addend: 0x0, symName: __ZN5alloc7raw_vec11finish_grow17h284607432dfa09eaE, symObjAddr: 0xCCE54, symBinAddr: 0xC87F8, symSize: 0x10C }
  - { offset: 0x5FA6F, size: 0x8, addend: 0x0, symName: '__ZN5alloc4sync16Arc$LT$T$C$A$GT$9drop_slow17hd03ddd648ec4e2eaE', symObjAddr: 0xCB4C0, symBinAddr: 0xC6FE4, symSize: 0x38 }
  - { offset: 0x5FB83, size: 0x8, addend: 0x0, symName: '__ZN5alloc4sync16Arc$LT$T$C$A$GT$9drop_slow17ha984bab9600c89a9E', symObjAddr: 0xCC888, symBinAddr: 0xC8328, symSize: 0x118 }
  - { offset: 0x60042, size: 0x8, addend: 0x0, symName: '__ZN5alloc4sync16Arc$LT$T$C$A$GT$9drop_slow17h77958db6d4282a53E', symObjAddr: 0xD213C, symBinAddr: 0xCD96C, symSize: 0xA8 }
  - { offset: 0x60446, size: 0x8, addend: 0x0, symName: '__ZN5alloc4sync16Arc$LT$T$C$A$GT$9drop_slow17h3b5114797d849af5E', symObjAddr: 0xD73C0, symBinAddr: 0xD2B0C, symSize: 0xC0 }
  - { offset: 0x606D5, size: 0x8, addend: 0x0, symName: '__ZN5alloc4sync16Arc$LT$T$C$A$GT$9drop_slow17hdcf65d86251390ebE', symObjAddr: 0xDF8FC, symBinAddr: 0xDB048, symSize: 0x164 }
  - { offset: 0x60DEF, size: 0x8, addend: 0x0, symName: '__ZN64_$LT$alloc..ffi..c_str..NulError$u20$as$u20$core..fmt..Debug$GT$3fmt17h817530dda927f52fE.4873', symObjAddr: 0xCD470, symBinAddr: 0xC8DE4, symSize: 0x4C }
  - { offset: 0x60FB0, size: 0x8, addend: 0x0, symName: '__ZN58_$LT$alloc..string..String$u20$as$u20$core..fmt..Debug$GT$3fmt17h7345030ada05d999E.4844', symObjAddr: 0xCBE24, symBinAddr: 0xC7904, symSize: 0x20 }
  - { offset: 0x6106A, size: 0x8, addend: 0x0, symName: '__ZN60_$LT$alloc..string..String$u20$as$u20$core..fmt..Display$GT$3fmt17h954af3de5ef50fdeE.4846', symObjAddr: 0xCBF5C, symBinAddr: 0xC7A3C, symSize: 0x1C }
  - { offset: 0x61139, size: 0x8, addend: 0x0, symName: '__ZN58_$LT$alloc..string..String$u20$as$u20$core..fmt..Write$GT$9write_str17he3ad2007964ef1fcE.4987', symObjAddr: 0xF83A0, symBinAddr: 0xF2C30, symSize: 0x80 }
  - { offset: 0x6128B, size: 0x8, addend: 0x0, symName: '__ZN58_$LT$alloc..string..String$u20$as$u20$core..fmt..Write$GT$10write_char17h1d9a910f6b3ce5c9E.4988', symObjAddr: 0xF8420, symBinAddr: 0xF2CB0, symSize: 0x14C }
  - { offset: 0x617E5, size: 0x8, addend: 0x0, symName: '__ZN5alloc11collections5btree3map25BTreeMap$LT$K$C$V$C$A$GT$6insert17h8da5f8e8757b0a6cE', symObjAddr: 0xEE834, symBinAddr: 0xE92E8, symSize: 0x93C }
  - { offset: 0x6315A, size: 0x8, addend: 0x0, symName: '__ZN5alloc11collections5btree3map25IntoIter$LT$K$C$V$C$A$GT$10dying_next17hbe5f2df5d8f16363E', symObjAddr: 0xDF770, symBinAddr: 0xDAEBC, symSize: 0x18C }
  - { offset: 0x635DE, size: 0x8, addend: 0x0, symName: '__ZN5alloc11collections5btree3map25IntoIter$LT$K$C$V$C$A$GT$10dying_next17h7e0f2f08bf203829E', symObjAddr: 0xDFAE8, symBinAddr: 0xDB234, symSize: 0x18C }
  - { offset: 0x63A62, size: 0x8, addend: 0x0, symName: '__ZN5alloc11collections5btree3map25IntoIter$LT$K$C$V$C$A$GT$10dying_next17h8d7b35842e8372d4E', symObjAddr: 0xEF7D0, symBinAddr: 0xEA284, symSize: 0x18C }
  - { offset: 0x64B21, size: 0x8, addend: 0x0, symName: '__ZN5alloc11collections5btree6remove259_$LT$impl$u20$alloc..collections..btree..node..Handle$LT$alloc..collections..btree..node..NodeRef$LT$alloc..collections..btree..node..marker..Mut$C$K$C$V$C$alloc..collections..btree..node..marker..Leaf$GT$$C$alloc..collections..btree..node..marker..KV$GT$$GT$14remove_leaf_kv17hb202460fd5bab803E', symObjAddr: 0xEF170, symBinAddr: 0xE9C24, symSize: 0x570 }
  - { offset: 0x6587E, size: 0x8, addend: 0x0, symName: '__ZN5alloc11collections5btree4node208Handle$LT$alloc..collections..btree..node..NodeRef$LT$alloc..collections..btree..node..marker..Mut$C$K$C$V$C$alloc..collections..btree..node..marker..Leaf$GT$$C$alloc..collections..btree..node..marker..KV$GT$5split17hfd3e1169b8512b11E', symObjAddr: 0xF0224, symBinAddr: 0xEACD8, symSize: 0x1A4 }
  - { offset: 0x65DD2, size: 0x8, addend: 0x0, symName: '__ZN5alloc11collections5btree4node212Handle$LT$alloc..collections..btree..node..NodeRef$LT$alloc..collections..btree..node..marker..Mut$C$K$C$V$C$alloc..collections..btree..node..marker..Internal$GT$$C$alloc..collections..btree..node..marker..KV$GT$5split17hb6d303a056387122E', symObjAddr: 0xF03C8, symBinAddr: 0xEAE7C, symSize: 0x268 }
  - { offset: 0x6665C, size: 0x8, addend: 0x0, symName: '__ZN5alloc11collections5btree4node208Handle$LT$alloc..collections..btree..node..NodeRef$LT$alloc..collections..btree..node..marker..Mut$C$K$C$V$C$alloc..collections..btree..node..marker..Leaf$GT$$C$alloc..collections..btree..node..marker..KV$GT$5split17hd658ce43d151151aE', symObjAddr: 0xF6F2C, symBinAddr: 0xF1898, symSize: 0x1B0 }
  - { offset: 0x66BD9, size: 0x8, addend: 0x0, symName: '__ZN5alloc11collections5btree4node212Handle$LT$alloc..collections..btree..node..NodeRef$LT$alloc..collections..btree..node..marker..Mut$C$K$C$V$C$alloc..collections..btree..node..marker..Internal$GT$$C$alloc..collections..btree..node..marker..KV$GT$5split17h5ab2a049c0c0ece6E', symObjAddr: 0xF70DC, symBinAddr: 0xF1A48, symSize: 0x274 }
  - { offset: 0x674F1, size: 0x8, addend: 0x0, symName: '__ZN5alloc11collections5btree4node29BalancingContext$LT$K$C$V$GT$15bulk_steal_left17h1c6b2312d0e085fdE', symObjAddr: 0xEFAB0, symBinAddr: 0xEA564, symSize: 0x284 }
  - { offset: 0x67B3F, size: 0x8, addend: 0x0, symName: '__ZN5alloc11collections5btree4node29BalancingContext$LT$K$C$V$GT$8do_merge17h2a5de6a85911a500E', symObjAddr: 0xEFD34, symBinAddr: 0xEA7E8, symSize: 0x248 }
  - { offset: 0x68202, size: 0x8, addend: 0x0, symName: '__ZN5alloc11collections5btree4node29BalancingContext$LT$K$C$V$GT$16bulk_steal_right17h0c3ac5a09b8c92c4E', symObjAddr: 0xEFF7C, symBinAddr: 0xEAA30, symSize: 0x2A8 }
  - { offset: 0x68FE2, size: 0x8, addend: 0x0, symName: __ZN6object4read7archive13ArchiveMember5parse17hdd1fad291c163b20E, symObjAddr: 0xD2BCC, symBinAddr: 0xCE3FC, symSize: 0xC48 }
  - { offset: 0x6A78D, size: 0x8, addend: 0x0, symName: '__ZN5gimli4read5dwarf14Dwarf$LT$R$GT$11attr_string17hc7ab9e2a9d7442d5E', symObjAddr: 0xD5CA0, symBinAddr: 0xD13EC, symSize: 0x1E8 }
  - { offset: 0x6AF68, size: 0x8, addend: 0x0, symName: '__ZN5gimli4read5dwarf13Unit$LT$R$GT$3new17he9fc48899878c746E', symObjAddr: 0xE16C0, symBinAddr: 0xDCD68, symSize: 0x1D98 }
  - { offset: 0x6EC8E, size: 0x8, addend: 0x0, symName: '__ZN5gimli4read7aranges30ArangeHeader$LT$R$C$Offset$GT$5parse17h7cc8d5a588f95426E', symObjAddr: 0xE0D74, symBinAddr: 0xDC41C, symSize: 0x29C }
  - { offset: 0x6F5E9, size: 0x8, addend: 0x0, symName: '__ZN5gimli4read4unit22EntriesCursor$LT$R$GT$10next_entry17h4b2f84568b18d9a5E', symObjAddr: 0xDFD38, symBinAddr: 0xDB484, symSize: 0x2E8 }
  - { offset: 0x6FC2F, size: 0x8, addend: 0x0, symName: '__ZN5gimli4read4unit18Attribute$LT$R$GT$5value17h65fde7e4c39935e6E', symObjAddr: 0xDAB4C, symBinAddr: 0xD6298, symSize: 0x6FC }
  - { offset: 0x703B1, size: 0x8, addend: 0x0, symName: __ZN5gimli4read4unit15parse_attribute17h217c92dce3a6ad88E, symObjAddr: 0xD9B14, symBinAddr: 0xD5260, symSize: 0xF04 }
  - { offset: 0x730E9, size: 0x8, addend: 0x0, symName: '__ZN5gimli4read4unit32AttributeValue$LT$R$C$Offset$GT$11udata_value17h651cf7fe80ba123eE', symObjAddr: 0xDE5A0, symBinAddr: 0xD9CEC, symSize: 0x90 }
  - { offset: 0x730FD, size: 0x8, addend: 0x0, symName: __ZN5gimli4read4unit15skip_attributes17h00c6a6786b6548f2E, symObjAddr: 0xDB248, symBinAddr: 0xD6994, symSize: 0x4F4 }
  - { offset: 0x73AF1, size: 0x8, addend: 0x0, symName: '__ZN5gimli4read4unit33DebugInfoUnitHeadersIter$LT$R$GT$4next17h0622858f034dd431E', symObjAddr: 0xE11EC, symBinAddr: 0xDC894, symSize: 0x4D4 }
  - { offset: 0x74DA1, size: 0x8, addend: 0x0, symName: __ZN5gimli4read6reader6Reader12read_sleb12817hc3cde9c116326e47E, symObjAddr: 0xD4F38, symBinAddr: 0xD0768, symSize: 0x21C }
  - { offset: 0x74EB4, size: 0x8, addend: 0x0, symName: __ZN5gimli4read6reader6Reader17read_sized_offset17h29e5bef2647c568aE, symObjAddr: 0xDE630, symBinAddr: 0xD9D7C, symSize: 0xEC }
  - { offset: 0x75272, size: 0x8, addend: 0x0, symName: __ZN5gimli4read6reader6Reader11read_offset17h2202008b9ff4beabE, symObjAddr: 0xDE71C, symBinAddr: 0xD9E68, symSize: 0xBC }
  - { offset: 0x754D3, size: 0x8, addend: 0x0, symName: __ZN5gimli4read6reader6Reader12read_uleb12817h3f23556a60a42c40E, symObjAddr: 0xE53BC, symBinAddr: 0xE099C, symSize: 0xA4 }
  - { offset: 0x75819, size: 0x8, addend: 0x0, symName: '__ZN5gimli4read8rnglists20RngListIter$LT$R$GT$4next17hf9b257b87d207b20E', symObjAddr: 0xD8E30, symBinAddr: 0xD457C, symSize: 0xC00 }
  - { offset: 0x78300, size: 0x8, addend: 0x0, symName: '__ZN93_$LT$gimli..read..line..LineProgramHeader$LT$R$C$Offset$GT$$u20$as$u20$core..clone..Clone$GT$5clone17h8b5f869709e2304eE', symObjAddr: 0xD3814, symBinAddr: 0xCF044, symSize: 0x404 }
  - { offset: 0x78DC4, size: 0x8, addend: 0x0, symName: '__ZN5gimli4read4line27FileEntry$LT$R$C$Offset$GT$5parse17h366c87badf505c2eE', symObjAddr: 0xE57B8, symBinAddr: 0xE0D98, symSize: 0x1EC }
  - { offset: 0x790EA, size: 0x8, addend: 0x0, symName: __ZN5gimli4read4line15FileEntryFormat5parse17hed65470ddc241f18E, symObjAddr: 0xE5104, symBinAddr: 0xE06E4, symSize: 0x2B8 }
  - { offset: 0x7991E, size: 0x8, addend: 0x0, symName: __ZN5gimli4read4line18parse_directory_v517hceb9b64b4c1bceebE, symObjAddr: 0xE5460, symBinAddr: 0xE0A40, symSize: 0xE4 }
  - { offset: 0x799B0, size: 0x8, addend: 0x0, symName: __ZN5gimli4read4line13parse_file_v517h090a833e9567c66aE, symObjAddr: 0xE5544, symBinAddr: 0xE0B24, symSize: 0x274 }
  - { offset: 0x79B29, size: 0x8, addend: 0x0, symName: __ZN5gimli4read4line15parse_attribute17hb9b6bfaacfe25957E, symObjAddr: 0xE59A4, symBinAddr: 0xE0F84, symSize: 0x800 }
  - { offset: 0x7B310, size: 0x8, addend: 0x0, symName: '__ZN5gimli4read5index18UnitIndex$LT$R$GT$5parse17h678049bae7f75f5aE', symObjAddr: 0xE3A88, symBinAddr: 0xDF068, symSize: 0x6DC }
  - { offset: 0x7BD74, size: 0x8, addend: 0x0, symName: '__ZN9addr2line30LoopingLookup$LT$T$C$L$C$F$GT$10new_lookup17h697300384f05dcc1E', symObjAddr: 0xD6FC0, symBinAddr: 0xD270C, symSize: 0x400 }
  - { offset: 0x7C2E1, size: 0x8, addend: 0x0, symName: '__ZN9addr2line16ResUnit$LT$R$GT$25find_function_or_location28_$u7b$$u7b$closure$u7d$$u7d$17h9e5d4d8b233ef9b7E', symObjAddr: 0xD7480, symBinAddr: 0xD2BCC, symSize: 0x17D4 }
  - { offset: 0x7F9C6, size: 0x8, addend: 0x0, symName: '__ZN9addr2line16ResUnit$LT$R$GT$25find_function_or_location17h791f23fe7238c654E', symObjAddr: 0xD6BC8, symBinAddr: 0xD2314, symSize: 0x3F8 }
  - { offset: 0x7FD98, size: 0x8, addend: 0x0, symName: '__ZN9addr2line18FrameIter$LT$R$GT$4next17h9fb1cbcf4aab7aaeE', symObjAddr: 0xD2900, symBinAddr: 0xCE130, symSize: 0x2CC }
  - { offset: 0x802A8, size: 0x8, addend: 0x0, symName: __ZN9addr2line5Lines5parse17h75e4982fa089492cE, symObjAddr: 0xD3C18, symBinAddr: 0xCF448, symSize: 0x1274 }
  - { offset: 0x830EF, size: 0x8, addend: 0x0, symName: __ZN9addr2line11render_file17h8481d5d26ea45c16E, symObjAddr: 0xD5734, symBinAddr: 0xD0F64, symSize: 0x488 }
  - { offset: 0x83A70, size: 0x8, addend: 0x0, symName: '__ZN9addr2line8function17Function$LT$R$GT$14parse_children17h46e6d468ac33a992E', symObjAddr: 0xDB8DC, symBinAddr: 0xD7028, symSize: 0x122C }
  - { offset: 0x8505E, size: 0x8, addend: 0x0, symName: __ZN9addr2line8function9name_attr17hf67b4b7e1966488eE, symObjAddr: 0xDCCE4, symBinAddr: 0xD8430, symSize: 0x274 }
  - { offset: 0x852D1, size: 0x8, addend: 0x0, symName: __ZN9addr2line8function10name_entry17hbe3c00ed40ab4db3E, symObjAddr: 0xDCF58, symBinAddr: 0xD86A4, symSize: 0x3C0 }
  - { offset: 0x85729, size: 0x8, addend: 0x0, symName: _OUTLINED_FUNCTION_1, symObjAddr: 0x104554, symBinAddr: 0xFE91C, symSize: 0xC }
  - { offset: 0x85740, size: 0x8, addend: 0x0, symName: _OUTLINED_FUNCTION_2, symObjAddr: 0x104560, symBinAddr: 0xFE928, symSize: 0x8 }
  - { offset: 0x8581A, size: 0x8, addend: 0x0, symName: ___rust_start_panic, symObjAddr: 0xB8774, symBinAddr: 0xB58F0, symSize: 0xA0 }
  - { offset: 0x85858, size: 0x8, addend: 0x0, symName: '__ZN4core3ptr74drop_in_place$LT$alloc..boxed..Box$LT$panic_unwind..imp..Exception$GT$$GT$17h8d64065f2b57f499E', symObjAddr: 0xB882C, symBinAddr: 0xB59A8, symSize: 0x74 }
  - { offset: 0x85BAF, size: 0x8, addend: 0x0, symName: __ZN12panic_unwind3imp5panic17exception_cleanup17h410a045d816a6f67E, symObjAddr: 0xB8814, symBinAddr: 0xB5990, symSize: 0x18 }
  - { offset: 0x85BD6, size: 0x8, addend: 0x0, symName: ___rust_start_panic, symObjAddr: 0xB8774, symBinAddr: 0xB58F0, symSize: 0xA0 }
  - { offset: 0x39D2, size: 0x8, addend: 0x0, symName: __ZN4core3fmt9Formatter12pad_integral17h049bfdabcfbfc45dE, symObjAddr: 0xA0A8C, symBinAddr: 0x9E94C, symSize: 0x290 }
  - { offset: 0x3CFB, size: 0x8, addend: 0x0, symName: __ZN4core3fmt9Formatter3pad17h7e01c7b66e02bd16E, symObjAddr: 0xA1468, symBinAddr: 0x9F31C, symSize: 0x37C }
  - { offset: 0x4219, size: 0x8, addend: 0x0, symName: __ZN4core3fmt9Formatter25debug_tuple_field2_finish17h713754347460ad80E, symObjAddr: 0xA6E88, symBinAddr: 0xA4990, symSize: 0x100 }
  - { offset: 0x42FA, size: 0x8, addend: 0x0, symName: __ZN4core3fmt9Formatter19pad_formatted_parts17h678ec5151196790eE, symObjAddr: 0xA9F24, symBinAddr: 0xA797C, symSize: 0x21C }
  - { offset: 0x44A0, size: 0x8, addend: 0x0, symName: __ZN4core3fmt9Formatter21write_formatted_parts17haa6416d8eb25812fE, symObjAddr: 0xAA140, symBinAddr: 0xA7B98, symSize: 0x25C }
  - { offset: 0x478C, size: 0x8, addend: 0x0, symName: '__ZN4core3fmt3num3imp52_$LT$impl$u20$core..fmt..Display$u20$for$u20$u64$GT$3fmt17h76240be72accce7cE', symObjAddr: 0xA0930, symBinAddr: 0x9E810, symSize: 0x13C }
  - { offset: 0x4842, size: 0x8, addend: 0x0, symName: '__ZN4core3fmt3num3imp52_$LT$impl$u20$core..fmt..Display$u20$for$u20$u32$GT$3fmt17h2e4bd42b857c9251E', symObjAddr: 0xA48E0, symBinAddr: 0xA2620, symSize: 0x13C }
  - { offset: 0x491C, size: 0x8, addend: 0x0, symName: '__ZN4core3fmt3num3imp51_$LT$impl$u20$core..fmt..Display$u20$for$u20$u8$GT$3fmt17hc1bb153b7f7ca7c1E', symObjAddr: 0xA6394, symBinAddr: 0xA3FF0, symSize: 0xA8 }
  - { offset: 0x49CC, size: 0x8, addend: 0x0, symName: '__ZN4core3fmt3num3imp52_$LT$impl$u20$core..fmt..Display$u20$for$u20$u16$GT$3fmt17hc5cc1e752faca08fE', symObjAddr: 0xA66B0, symBinAddr: 0xA4300, symSize: 0x110 }
  - { offset: 0x4A91, size: 0x8, addend: 0x0, symName: '__ZN4core3fmt3num3imp52_$LT$impl$u20$core..fmt..Display$u20$for$u20$i32$GT$3fmt17hd9d44aaaacb4f573E', symObjAddr: 0xAB8A8, symBinAddr: 0xA92CC, symSize: 0x260 }
  - { offset: 0x4BED, size: 0x8, addend: 0x0, symName: '__ZN4core3fmt3num3imp52_$LT$impl$u20$core..fmt..Display$u20$for$u20$i64$GT$3fmt17h1a038e1e87f90823E', symObjAddr: 0xABB08, symBinAddr: 0xA952C, symSize: 0x274 }
  - { offset: 0x4E4C, size: 0x8, addend: 0x0, symName: '__ZN4core3fmt3num50_$LT$impl$u20$core..fmt..Debug$u20$for$u20$u32$GT$3fmt17hf7778522d4a6332bE', symObjAddr: 0xA4A30, symBinAddr: 0xA2770, symSize: 0x1F8 }
  - { offset: 0x501D, size: 0x8, addend: 0x0, symName: '__ZN4core3fmt3num52_$LT$impl$u20$core..fmt..Debug$u20$for$u20$usize$GT$3fmt17hbdb2109e8331f94aE.2717', symObjAddr: 0xA4C28, symBinAddr: 0xA2968, symSize: 0x1EC }
  - { offset: 0x51CA, size: 0x8, addend: 0x0, symName: '__ZN4core3fmt3num53_$LT$impl$u20$core..fmt..LowerHex$u20$for$u20$i16$GT$3fmt17h1e5d10a6bde29ac3E', symObjAddr: 0xA4EE4, symBinAddr: 0xA2B9C, symSize: 0x84 }
  - { offset: 0x5291, size: 0x8, addend: 0x0, symName: '__ZN4core3fmt3num53_$LT$impl$u20$core..fmt..LowerHex$u20$for$u20$i64$GT$3fmt17h6510389b7f4167b0E', symObjAddr: 0xA68FC, symBinAddr: 0xA4410, symSize: 0x80 }
  - { offset: 0x5354, size: 0x8, addend: 0x0, symName: '__ZN4core3fmt3num52_$LT$impl$u20$core..fmt..UpperHex$u20$for$u20$i8$GT$3fmt17h3111720bddd92050E', symObjAddr: 0xA8F90, symBinAddr: 0xA69E8, symSize: 0x84 }
  - { offset: 0x5423, size: 0x8, addend: 0x0, symName: '__ZN4core3fmt3num50_$LT$impl$u20$core..fmt..Octal$u20$for$u20$i32$GT$3fmt17h29544d9e997ab10dE', symObjAddr: 0xABE0C, symBinAddr: 0xA9830, symSize: 0x74 }
  - { offset: 0x5523, size: 0x8, addend: 0x0, symName: __ZN4core3fmt9Formatter12pad_integral12write_prefix17hcc8c8e1efdba7adcE, symObjAddr: 0xA1180, symBinAddr: 0x9F040, symSize: 0x7C }
  - { offset: 0x556D, size: 0x8, addend: 0x0, symName: '__ZN44_$LT$$RF$T$u20$as$u20$core..fmt..Display$GT$3fmt17h4f31ddb5dde3529eE', symObjAddr: 0xA1924, symBinAddr: 0x9F698, symSize: 0x1C }
  - { offset: 0x559D, size: 0x8, addend: 0x0, symName: '__ZN44_$LT$$RF$T$u20$as$u20$core..fmt..Display$GT$3fmt17ha68eb739468069baE', symObjAddr: 0xA5FC0, symBinAddr: 0xA3C78, symSize: 0x14 }
  - { offset: 0x55BD, size: 0x8, addend: 0x0, symName: '__ZN42_$LT$$RF$T$u20$as$u20$core..fmt..Debug$GT$3fmt17h1a281dd55554d5fcE', symObjAddr: 0xA1940, symBinAddr: 0x9F6B4, symSize: 0x1C }
  - { offset: 0x55D7, size: 0x8, addend: 0x0, symName: '__ZN42_$LT$$RF$T$u20$as$u20$core..fmt..Debug$GT$3fmt17h4fde64248349977aE', symObjAddr: 0xA1B74, symBinAddr: 0x9F8E8, symSize: 0x1F4 }
  - { offset: 0x5789, size: 0x8, addend: 0x0, symName: '__ZN59_$LT$core..fmt..Arguments$u20$as$u20$core..fmt..Display$GT$3fmt17h6d27a1db33d17479E', symObjAddr: 0xA195C, symBinAddr: 0x9F6D0, symSize: 0x18 }
  - { offset: 0x57E2, size: 0x8, addend: 0x0, symName: __ZN4core3fmt5write17h5358bd20891469bcE, symObjAddr: 0xA1974, symBinAddr: 0x9F6E8, symSize: 0x200 }
  - { offset: 0x5A02, size: 0x8, addend: 0x0, symName: __ZN4core3fmt8builders11DebugStruct5field17hd2fb569cd05de82dE, symObjAddr: 0xA52B0, symBinAddr: 0xA2F68, symSize: 0x1BC }
  - { offset: 0x5CB3, size: 0x8, addend: 0x0, symName: '__ZN68_$LT$core..fmt..builders..PadAdapter$u20$as$u20$core..fmt..Write$GT$9write_str17ha100644de614d9d9E', symObjAddr: 0xA546C, symBinAddr: 0xA3124, symSize: 0x244 }
  - { offset: 0x5EE8, size: 0x8, addend: 0x0, symName: '__ZN68_$LT$core..fmt..builders..PadAdapter$u20$as$u20$core..fmt..Write$GT$10write_char17hd8b1327f6fce3784E', symObjAddr: 0xA56B0, symBinAddr: 0xA3368, symSize: 0x80 }
  - { offset: 0x5F36, size: 0x8, addend: 0x0, symName: __ZN4core3fmt8builders10DebugTuple5field17h940fb6f03f36dbc2E, symObjAddr: 0xA6988, symBinAddr: 0xA4490, symSize: 0x154 }
  - { offset: 0x6164, size: 0x8, addend: 0x0, symName: __ZN4core3fmt8builders8DebugSet5entry17he2e555d84b8abf9fE, symObjAddr: 0xA6ADC, symBinAddr: 0xA45E4, symSize: 0x148 }
  - { offset: 0x6342, size: 0x8, addend: 0x0, symName: __ZN4core3fmt8builders8DebugMap5entry17he617a0ed0d6f3f50E, symObjAddr: 0xA6C24, symBinAddr: 0xA472C, symSize: 0x264 }
  - { offset: 0x6717, size: 0x8, addend: 0x0, symName: __ZN4core3fmt5Write9write_fmt17h30ef332e184c464dE, symObjAddr: 0xA5730, symBinAddr: 0xA33E8, symSize: 0x1C }
  - { offset: 0x675D, size: 0x8, addend: 0x0, symName: __ZN4core3fmt5Write10write_char17haa670988f0319911E, symObjAddr: 0xA6220, symBinAddr: 0xA3E7C, symSize: 0x158 }
  - { offset: 0x683E, size: 0x8, addend: 0x0, symName: __ZN4core3fmt5Write9write_fmt17h4535ac0e2dcdb5caE, symObjAddr: 0xA6378, symBinAddr: 0xA3FD4, symSize: 0x1C }
  - { offset: 0x686C, size: 0x8, addend: 0x0, symName: __ZN4core3fmt5Write10write_char17h84d4fba4361513eeE, symObjAddr: 0xA6498, symBinAddr: 0xA40F4, symSize: 0x158 }
  - { offset: 0x694D, size: 0x8, addend: 0x0, symName: __ZN4core3fmt5Write9write_fmt17h4672e0e8dc7e7872E, symObjAddr: 0xA65F0, symBinAddr: 0xA424C, symSize: 0x1C }
  - { offset: 0x6994, size: 0x8, addend: 0x0, symName: '__ZN45_$LT$$RF$T$u20$as$u20$core..fmt..LowerHex$GT$3fmt17h1815acf8678634c1E', symObjAddr: 0xA6030, symBinAddr: 0xA3C8C, symSize: 0x88 }
  - { offset: 0x6A60, size: 0x8, addend: 0x0, symName: '__ZN43_$LT$bool$u20$as$u20$core..fmt..Display$GT$3fmt17h822edec080d30308E', symObjAddr: 0xA6F88, symBinAddr: 0xA4A90, symSize: 0x44 }
  - { offset: 0x6ACB, size: 0x8, addend: 0x0, symName: '__ZN40_$LT$str$u20$as$u20$core..fmt..Debug$GT$3fmt17h3dcc837cd1fde19aE', symObjAddr: 0xA6FCC, symBinAddr: 0xA4AD4, symSize: 0x338 }
  - { offset: 0x6F66, size: 0x8, addend: 0x0, symName: '__ZN41_$LT$char$u20$as$u20$core..fmt..Debug$GT$3fmt17hfdcd238886e495cfE', symObjAddr: 0xA78F4, symBinAddr: 0xA53F0, symSize: 0xAC }
  - { offset: 0x7063, size: 0x8, addend: 0x0, symName: '__ZN43_$LT$char$u20$as$u20$core..fmt..Display$GT$3fmt17h8164734da44e1eadE', symObjAddr: 0xA7E34, symBinAddr: 0xA5930, symSize: 0xF8 }
  - { offset: 0x7119, size: 0x8, addend: 0x0, symName: __ZN4core3fmt5float29float_to_decimal_common_exact17h4d89fd3071315938E, symObjAddr: 0xA972C, symBinAddr: 0xA7184, symSize: 0x2F4 }
  - { offset: 0x71D4, size: 0x8, addend: 0x0, symName: __ZN4core3fmt5float32float_to_decimal_common_shortest17he013f8ef5ee4bb0bE, symObjAddr: 0xA9A20, symBinAddr: 0xA7478, symSize: 0x238 }
  - { offset: 0x728A, size: 0x8, addend: 0x0, symName: __ZN4core3fmt5float36float_to_exponential_common_shortest17h5fb34166ff50c34eE, symObjAddr: 0xA9C58, symBinAddr: 0xA76B0, symSize: 0x2CC }
  - { offset: 0x73C8, size: 0x8, addend: 0x0, symName: __ZN4core3fmt5float29float_to_decimal_common_exact17h28c410d6a23bf47aE, symObjAddr: 0xAA39C, symBinAddr: 0xA7DF4, symSize: 0x2F8 }
  - { offset: 0x7483, size: 0x8, addend: 0x0, symName: __ZN4core3fmt5float32float_to_decimal_common_shortest17h9e2b0e526b6ef295E, symObjAddr: 0xAA694, symBinAddr: 0xA80EC, symSize: 0x23C }
  - { offset: 0x7539, size: 0x8, addend: 0x0, symName: __ZN4core3fmt5float36float_to_exponential_common_shortest17he9d17bc24cc93078E, symObjAddr: 0xAA8D0, symBinAddr: 0xA8328, symSize: 0x2D0 }
  - { offset: 0x7688, size: 0x8, addend: 0x0, symName: '__ZN4core3fmt5float52_$LT$impl$u20$core..fmt..Display$u20$for$u20$f32$GT$3fmt17h2a5e36c86856afb9E', symObjAddr: 0xABD7C, symBinAddr: 0xA97A0, symSize: 0x48 }
  - { offset: 0x76D5, size: 0x8, addend: 0x0, symName: '__ZN4core3fmt5float52_$LT$impl$u20$core..fmt..Display$u20$for$u20$f64$GT$3fmt17h8b1639db90b92f64E', symObjAddr: 0xABDC4, symBinAddr: 0xA97E8, symSize: 0x48 }
  - { offset: 0x79E5, size: 0x8, addend: 0x0, symName: __ZN4core5slice6memchr14memchr_aligned17h5ea4592337162e01E, symObjAddr: 0xA7F2C, symBinAddr: 0xA5A28, symSize: 0xF0 }
  - { offset: 0x80AC, size: 0x8, addend: 0x0, symName: __ZN4core5slice5index26slice_start_index_len_fail8do_panic7runtime17hb9a5d722dec08d52E, symObjAddr: 0xA11FC, symBinAddr: 0x9F0BC, symSize: 0x50 }
  - { offset: 0x80DE, size: 0x8, addend: 0x0, symName: __ZN4core5slice5index26slice_start_index_len_fail17hb941cdec3696e1afE, symObjAddr: 0xA08D4, symBinAddr: 0x1048B0, symSize: 0xC }
  - { offset: 0x8122, size: 0x8, addend: 0x0, symName: __ZN4core5slice5index24slice_end_index_len_fail8do_panic7runtime17h2aea02db9285dc5fE, symObjAddr: 0xA1418, symBinAddr: 0x9F2CC, symSize: 0x50 }
  - { offset: 0x8154, size: 0x8, addend: 0x0, symName: __ZN4core5slice5index24slice_end_index_len_fail17h35fe1ac5b5b3247cE, symObjAddr: 0xA140C, symBinAddr: 0x10492C, symSize: 0xC }
  - { offset: 0x8446, size: 0x8, addend: 0x0, symName: __ZN4core5slice5index22slice_index_order_fail8do_panic7runtime17hd8b1f9534e4c757aE, symObjAddr: 0xA6628, symBinAddr: 0xA4278, symSize: 0x50 }
  - { offset: 0x8478, size: 0x8, addend: 0x0, symName: __ZN4core5slice5index22slice_index_order_fail17he00cc6f26c4e3d65E, symObjAddr: 0xA661C, symBinAddr: 0x104B90, symSize: 0xC }
  - { offset: 0x84F5, size: 0x8, addend: 0x0, symName: __ZN4core5slice5index29slice_end_index_overflow_fail17h281b4f386bd24efcE, symObjAddr: 0xA8054, symBinAddr: 0x104D28, symSize: 0x34 }
  - { offset: 0x878C, size: 0x8, addend: 0x0, symName: __ZN4core5slice4sort6shared9smallsort22panic_on_ord_violation17hde5e51e040c58445E, symObjAddr: 0xA801C, symBinAddr: 0x104CF0, symSize: 0x38 }
  - { offset: 0x888E, size: 0x8, addend: 0x0, symName: __ZN4core3num7dec2flt7decimal7Decimal5round17h643f993bf78e3adcE, symObjAddr: 0xA060C, symBinAddr: 0x9E548, symSize: 0xC4 }
  - { offset: 0x88D9, size: 0x8, addend: 0x0, symName: __ZN4core3num7dec2flt7decimal7Decimal10left_shift17h8288ec25f02b2356E, symObjAddr: 0xA06D0, symBinAddr: 0x9E60C, symSize: 0x204 }
  - { offset: 0x897C, size: 0x8, addend: 0x0, symName: __ZN4core3num7dec2flt7decimal7Decimal11right_shift17ha5995ad4fb782cfeE, symObjAddr: 0xA124C, symBinAddr: 0x9F10C, symSize: 0x1C0 }
  - { offset: 0x8C09, size: 0x8, addend: 0x0, symName: '__ZN4core3num7dec2flt60_$LT$impl$u20$core..str..traits..FromStr$u20$for$u20$f64$GT$8from_str17h28047c26f165eebeE', symObjAddr: 0xAABA0, symBinAddr: 0xA85F8, symSize: 0xB70 }
  - { offset: 0x9712, size: 0x8, addend: 0x0, symName: __ZN4core3num7dec2flt6lemire13compute_float17h425ee7db43bc88f6E, symObjAddr: 0xAB710, symBinAddr: 0xA9168, symSize: 0x164 }
  - { offset: 0x98CE, size: 0x8, addend: 0x0, symName: __ZN4core3num6bignum8Big32x4010mul_digits17h0706f236a384da51E, symObjAddr: 0xA1F4C, symBinAddr: 0x9FCC0, symSize: 0x1E8 }
  - { offset: 0x9BB0, size: 0x8, addend: 0x0, symName: __ZN4core3num6bignum8Big32x408mul_pow217he45735dc74fc8237E, symObjAddr: 0xA2134, symBinAddr: 0x9FEA8, symSize: 0x184 }
  - { offset: 0x9ED3, size: 0x8, addend: 0x0, symName: __ZN4core3num7flt2dec8strategy6dragon9mul_pow1017h460a46eb3692caa5E, symObjAddr: 0xA1D68, symBinAddr: 0x9FADC, symSize: 0x1E4 }
  - { offset: 0xA169, size: 0x8, addend: 0x0, symName: __ZN4core3num7flt2dec8strategy6dragon15format_shortest17hc87b178f222b6116E, symObjAddr: 0xA22B8, symBinAddr: 0xA002C, symSize: 0xC80 }
  - { offset: 0xBDC3, size: 0x8, addend: 0x0, symName: __ZN4core3num7flt2dec8strategy6dragon12format_exact17h2384fefb3c7eb724E, symObjAddr: 0xA2F38, symBinAddr: 0xA0CAC, symSize: 0xB34 }
  - { offset: 0xD595, size: 0x8, addend: 0x0, symName: __ZN4core3num7flt2dec8strategy5grisu19format_shortest_opt17hdf025d4c00bcebe8E, symObjAddr: 0xA3A6C, symBinAddr: 0xA17E0, symSize: 0x70C }
  - { offset: 0xD69C, size: 0x8, addend: 0x0, symName: __ZN4core3num7flt2dec8strategy5grisu16format_exact_opt17hbc6e709f5b3851f1E, symObjAddr: 0xA41AC, symBinAddr: 0xA1EEC, symSize: 0x404 }
  - { offset: 0xD700, size: 0x8, addend: 0x0, symName: __ZN4core3num7flt2dec8strategy5grisu16format_exact_opt14possibly_round17h9d7b3fa630ddc089E, symObjAddr: 0xA45B0, symBinAddr: 0xA22F0, symSize: 0x1D0 }
  - { offset: 0xD87E, size: 0x8, addend: 0x0, symName: __ZN4core3num7flt2dec17digits_to_dec_str17h0ac3ed1794e23dcdE, symObjAddr: 0xA4780, symBinAddr: 0xA24C0, symSize: 0x12C }
  - { offset: 0xDA28, size: 0x8, addend: 0x0, symName: '__ZN70_$LT$core..num..error..ParseIntError$u20$as$u20$core..fmt..Display$GT$3fmt17hcf0d782669d9a2b8E', symObjAddr: 0xA48AC, symBinAddr: 0xA25EC, symSize: 0x34 }
  - { offset: 0xDA76, size: 0x8, addend: 0x0, symName: '__ZN73_$LT$core..num..nonzero..NonZero$LT$T$GT$$u20$as$u20$core..fmt..Debug$GT$3fmt17h91cbeda5ff30619eE', symObjAddr: 0xA4A1C, symBinAddr: 0xA275C, symSize: 0x14 }
  - { offset: 0xDBAE, size: 0x8, addend: 0x0, symName: __ZN4core7unicode12unicode_data15grapheme_extend11lookup_slow17h741699e99470d1c4E, symObjAddr: 0xA7CC0, symBinAddr: 0xA57BC, symSize: 0x174 }
  - { offset: 0xDE21, size: 0x8, addend: 0x0, symName: __ZN4core7unicode12unicode_data10alphabetic6lookup17h1beea0bb4c6dad91E, symObjAddr: 0xABE80, symBinAddr: 0xA98A4, symSize: 0x170 }
  - { offset: 0xDFF0, size: 0x8, addend: 0x0, symName: __ZN4core7unicode12unicode_data14case_ignorable6lookup17h3dfc6e2c9ec68657E, symObjAddr: 0xABFF0, symBinAddr: 0xA9A14, symSize: 0x178 }
  - { offset: 0xE1BF, size: 0x8, addend: 0x0, symName: __ZN4core7unicode12unicode_data5cased6lookup17h78619f686871ff45E, symObjAddr: 0xAC168, symBinAddr: 0xA9B8C, symSize: 0x160 }
  - { offset: 0xE38F, size: 0x8, addend: 0x0, symName: __ZN4core7unicode12unicode_data1n6lookup17h2e289ee9296591d1E, symObjAddr: 0xAC2C8, symBinAddr: 0xA9CEC, symSize: 0x178 }
  - { offset: 0xE549, size: 0x8, addend: 0x0, symName: __ZN4core7unicode9printable12is_printable17h89a2852ebad2034eE, symObjAddr: 0xA7A00, symBinAddr: 0xA54FC, symSize: 0x2C0 }
  - { offset: 0xEC5A, size: 0x8, addend: 0x0, symName: __ZN4core6result13unwrap_failed17h47e2afd53f1d6de6E, symObjAddr: 0xA5FD4, symBinAddr: 0x104B34, symSize: 0x5C }
  - { offset: 0xECF9, size: 0x8, addend: 0x0, symName: '__ZN4core4char7methods22_$LT$impl$u20$char$GT$16escape_debug_ext17h0f51c970bca40e52E', symObjAddr: 0xA7304, symBinAddr: 0xA4E0C, symSize: 0x260 }
  - { offset: 0xF481, size: 0x8, addend: 0x0, symName: __ZN4core9panicking18panic_bounds_check17h4d54449b19f7f1d3E, symObjAddr: 0xA08E0, symBinAddr: 0x1048BC, symSize: 0x50 }
  - { offset: 0xF4B2, size: 0x8, addend: 0x0, symName: __ZN4core9panicking9panic_fmt17ha0f8363f677e0181E, symObjAddr: 0xA0A6C, symBinAddr: 0x10490C, symSize: 0x20 }
  - { offset: 0xF4E0, size: 0x8, addend: 0x0, symName: __ZN4core9panicking5panic17hdb1c1abf01ff1978E, symObjAddr: 0xA17E4, symBinAddr: 0x104938, symSize: 0x34 }
  - { offset: 0xF50E, size: 0x8, addend: 0x0, symName: __ZN4core9panicking13assert_failed17h7dcc3e63d738ab30E, symObjAddr: 0xA1818, symBinAddr: 0x10496C, symSize: 0x28 }
  - { offset: 0xF529, size: 0x8, addend: 0x0, symName: __ZN4core9panicking19assert_failed_inner17h15559fa3867ed149E, symObjAddr: 0xA1840, symBinAddr: 0x104994, symSize: 0xE4 }
  - { offset: 0xF575, size: 0x8, addend: 0x0, symName: __ZN4core9panicking11panic_const23panic_const_div_by_zero17h7d3ef343e11e6945E, symObjAddr: 0xA4178, symBinAddr: 0x104A78, symSize: 0x34 }
  - { offset: 0xF5A3, size: 0x8, addend: 0x0, symName: __ZN4core9panicking11panic_const23panic_const_rem_by_zero17h6e02192ff5b0aea3E, symObjAddr: 0xAB874, symBinAddr: 0x104D94, symSize: 0x34 }
  - { offset: 0xF5F2, size: 0x8, addend: 0x0, symName: __ZN4core9panicking18panic_nounwind_fmt17h6251928767c378a3E, symObjAddr: 0xA6824, symBinAddr: 0x104C00, symSize: 0x3C }
  - { offset: 0xF636, size: 0x8, addend: 0x0, symName: __ZN4core9panicking19panic_cannot_unwind17hc39e9acf1ae7ca4bE, symObjAddr: 0xA6860, symBinAddr: 0x104C3C, symSize: 0xC }
  - { offset: 0xF650, size: 0x8, addend: 0x0, symName: __ZN4core9panicking14panic_nounwind17he5e0e92598e09d63E, symObjAddr: 0xA686C, symBinAddr: 0x104C48, symSize: 0x48 }
  - { offset: 0xF67F, size: 0x8, addend: 0x0, symName: __ZN4core9panicking26panic_nounwind_nobacktrace17h0de107efa68be326E, symObjAddr: 0xA68B4, symBinAddr: 0x104C90, symSize: 0x48 }
  - { offset: 0xF6AE, size: 0x8, addend: 0x0, symName: __ZN4core9panicking16panic_in_cleanup17h08fe812c23ada610E, symObjAddr: 0xA697C, symBinAddr: 0x104CD8, symSize: 0xC }
  - { offset: 0xF7D4, size: 0x8, addend: 0x0, symName: __ZN4core3str5count14do_count_chars17he6ec2dcc93f63f8bE, symObjAddr: 0xA0D1C, symBinAddr: 0x9EBDC, symSize: 0x464 }
  - { offset: 0xFD4B, size: 0x8, addend: 0x0, symName: __ZN4core3str6traits23str_index_overflow_fail17h0db812fab2743fdaE, symObjAddr: 0xA8088, symBinAddr: 0x104D5C, symSize: 0x38 }
  - { offset: 0xFD80, size: 0x8, addend: 0x0, symName: __ZN4core3str8converts9from_utf817hc03681bd1773408bE, symObjAddr: 0xA506C, symBinAddr: 0xA2D24, symSize: 0x244 }
  - { offset: 0xFE86, size: 0x8, addend: 0x0, symName: __ZN4core3str7pattern11StrSearcher3new17hc0c392c6087bee61E, symObjAddr: 0xA80C0, symBinAddr: 0xA5B18, symSize: 0x904 }
  - { offset: 0x100FE, size: 0x8, addend: 0x0, symName: __ZN4core3str16slice_error_fail17h02d4e1a395d5da1cE, symObjAddr: 0xA7564, symBinAddr: 0x104CE4, symSize: 0xC }
  - { offset: 0x10117, size: 0x8, addend: 0x0, symName: __ZN4core3str19slice_error_fail_rt17h0afb9617ef8df6aeE, symObjAddr: 0xA7570, symBinAddr: 0xA506C, symSize: 0x384 }
  - { offset: 0x1038B, size: 0x8, addend: 0x0, symName: '__ZN60_$LT$core..str..lossy..Debug$u20$as$u20$core..fmt..Debug$GT$3fmt17hb566fa7f44b894bbE', symObjAddr: 0xA89C4, symBinAddr: 0xA641C, symSize: 0x3F0 }
  - { offset: 0x1071F, size: 0x8, addend: 0x0, symName: '__ZN87_$LT$core..str..lossy..Utf8Chunks$u20$as$u20$core..iter..traits..iterator..Iterator$GT$4next17h52e4a677f32f3abaE', symObjAddr: 0xA8DB4, symBinAddr: 0xA680C, symSize: 0x1DC }
  - { offset: 0x10B47, size: 0x8, addend: 0x0, symName: __ZN4core6option13unwrap_failed17hb903c8fd63cd2e84E, symObjAddr: 0xA67C0, symBinAddr: 0x104B9C, symSize: 0x1C }
  - { offset: 0x10B61, size: 0x8, addend: 0x0, symName: __ZN4core6option13expect_failed17h1c87388c17a818f4E, symObjAddr: 0xA67DC, symBinAddr: 0x104BB8, symSize: 0x48 }
  - { offset: 0x10C81, size: 0x8, addend: 0x0, symName: '__ZN71_$LT$core..ops..range..Range$LT$Idx$GT$$u20$as$u20$core..fmt..Debug$GT$3fmt17h009edafac3486dc9E', symObjAddr: 0xA79A0, symBinAddr: 0xA549C, symSize: 0x60 }
  - { offset: 0x10DCA, size: 0x8, addend: 0x0, symName: '__ZN60_$LT$core..cell..BorrowError$u20$as$u20$core..fmt..Debug$GT$3fmt17h81c65db075915e23E', symObjAddr: 0xA4E14, symBinAddr: 0xA2B54, symSize: 0x24 }
  - { offset: 0x10E2B, size: 0x8, addend: 0x0, symName: '__ZN63_$LT$core..cell..BorrowMutError$u20$as$u20$core..fmt..Debug$GT$3fmt17h220b26cc59db35a4E', symObjAddr: 0xA4E38, symBinAddr: 0xA2B78, symSize: 0x24 }
  - { offset: 0x10E87, size: 0x8, addend: 0x0, symName: __ZN4core4cell22panic_already_borrowed17hba8f1a632c294211E, symObjAddr: 0xA4E5C, symBinAddr: 0x104AAC, symSize: 0x44 }
  - { offset: 0x10EB8, size: 0x8, addend: 0x0, symName: __ZN4core4cell30panic_already_mutably_borrowed17h12a3481cf4a27d77E, symObjAddr: 0xA4EA0, symBinAddr: 0x104AF0, symSize: 0x44 }
  - { offset: 0x10EF9, size: 0x8, addend: 0x0, symName: __ZN4core3ffi5c_str4CStr19from_bytes_with_nul17h9842a7f2e0d26d6aE, symObjAddr: 0xA4F68, symBinAddr: 0xA2C20, symSize: 0x104 }
  - { offset: 0x10FCE, size: 0x8, addend: 0x0, symName: '__ZN67_$LT$core..net..ip_addr..Ipv4Addr$u20$as$u20$core..fmt..Display$GT$3fmt17hb0e949b3eaf97c6aE', symObjAddr: 0xA574C, symBinAddr: 0xA3404, symSize: 0x154 }
  - { offset: 0x1118C, size: 0x8, addend: 0x0, symName: '__ZN67_$LT$core..net..ip_addr..Ipv6Addr$u20$as$u20$core..fmt..Display$GT$3fmt12fmt_subslice17h5032afbd92154243E', symObjAddr: 0xA60B8, symBinAddr: 0xA3D14, symSize: 0x10C }
  - { offset: 0x111A3, size: 0x8, addend: 0x0, symName: '__ZN67_$LT$core..net..ip_addr..Ipv6Addr$u20$as$u20$core..fmt..Display$GT$3fmt12fmt_subslice17h5032afbd92154243E', symObjAddr: 0xA60B8, symBinAddr: 0xA3D14, symSize: 0x10C }
  - { offset: 0x11282, size: 0x8, addend: 0x0, symName: '__ZN67_$LT$core..net..ip_addr..Ipv6Addr$u20$as$u20$core..fmt..Display$GT$3fmt17hde373a243c51f23eE', symObjAddr: 0xA58A0, symBinAddr: 0xA3558, symSize: 0x720 }
  - { offset: 0x1166E, size: 0x8, addend: 0x0, symName: '__ZN65_$LT$core..net..ip_addr..Ipv4Addr$u20$as$u20$core..fmt..Debug$GT$3fmt17he5788c4219841875E', symObjAddr: 0xA660C, symBinAddr: 0xA4268, symSize: 0x10 }
  - { offset: 0x116CA, size: 0x8, addend: 0x0, symName: '__ZN86_$LT$core..net..display_buffer..DisplayBuffer$LT$_$GT$$u20$as$u20$core..fmt..Write$GT$9write_str17h5f6107a80d9e256bE', symObjAddr: 0xA61C4, symBinAddr: 0xA3E20, symSize: 0x5C }
  - { offset: 0x11784, size: 0x8, addend: 0x0, symName: '__ZN86_$LT$core..net..display_buffer..DisplayBuffer$LT$_$GT$$u20$as$u20$core..fmt..Write$GT$9write_str17hb673d2f56c9ba566E', symObjAddr: 0xA643C, symBinAddr: 0xA4098, symSize: 0x5C }
  - { offset: 0x1185D, size: 0x8, addend: 0x0, symName: '__ZN72_$LT$core..net..parser..AddrParseError$u20$as$u20$core..fmt..Display$GT$3fmt17h9bf2fb6ba3972348E', symObjAddr: 0xA6678, symBinAddr: 0xA42C8, symSize: 0x38 }
  - { offset: 0x11914, size: 0x8, addend: 0x0, symName: '__ZN57_$LT$core..time..Duration$u20$as$u20$core..fmt..Debug$GT$3fmt11fmt_decimal17hd019abfe54d7d021E', symObjAddr: 0xA9014, symBinAddr: 0xA6A6C, symSize: 0x534 }
  - { offset: 0x11BE9, size: 0x8, addend: 0x0, symName: '__ZN57_$LT$core..time..Duration$u20$as$u20$core..fmt..Debug$GT$3fmt11fmt_decimal28_$u7b$$u7b$closure$u7d$$u7d$17hc919879441e372b0E', symObjAddr: 0xA9548, symBinAddr: 0xA6FA0, symSize: 0x1E4 }
  - { offset: 0x11D98, size: 0x8, addend: 0x0, symName: _OUTLINED_FUNCTION_0, symObjAddr: 0x104540, symBinAddr: 0xFE908, symSize: 0x14 }
  - { offset: 0x85775, size: 0x8, addend: 0x0, symName: __ZN9hashbrown3raw11Fallibility17capacity_overflow17h9a9c44b7a73b9a25E, symObjAddr: 0xAD98C, symBinAddr: 0xAB3B0, symSize: 0x38 }
  - { offset: 0x857B0, size: 0x8, addend: 0x0, symName: __ZN9hashbrown3raw11Fallibility17capacity_overflow17h9a9c44b7a73b9a25E, symObjAddr: 0xAD98C, symBinAddr: 0xAB3B0, symSize: 0x38 }
  - { offset: 0x857DF, size: 0x8, addend: 0x0, symName: __ZN9hashbrown3raw11Fallibility9alloc_err17h83074dadc600bdbaE, symObjAddr: 0xAD9C4, symBinAddr: 0xAB3E8, symSize: 0x14 }
  - { offset: 0x85CCA, size: 0x8, addend: 0x0, symName: _nif_init, symObjAddr: 0x0, symBinAddr: 0xFE930, symSize: 0xC }
  - { offset: 0x85CE5, size: 0x8, addend: 0x0, symName: _nif_init, symObjAddr: 0x0, symBinAddr: 0xFE930, symSize: 0xC }
  - { offset: 0x85D0C, size: 0x8, addend: 0x0, symName: _nif_init.entry, symObjAddr: 0x1C18, symBinAddr: 0x1740B0, symSize: 0x0 }
  - { offset: 0x85F05, size: 0x8, addend: 0x0, symName: _ok_atom, symBinAddr: 0x1750D0, symSize: 0x0 }
  - { offset: 0x85F1A, size: 0x8, addend: 0x0, symName: _error_atom, symBinAddr: 0x1750B8, symSize: 0x0 }
  - { offset: 0x85F2F, size: 0x8, addend: 0x0, symName: _sample_atom, symBinAddr: 0x1750D8, symSize: 0x0 }
  - { offset: 0x85F44, size: 0x8, addend: 0x0, symName: _no_sample_atom, symBinAddr: 0x1750C8, symSize: 0x0 }
  - { offset: 0x85F59, size: 0x8, addend: 0x0, symName: _true_atom, symBinAddr: 0x1750E0, symSize: 0x0 }
  - { offset: 0x85F6E, size: 0x8, addend: 0x0, symName: _false_atom, symBinAddr: 0x1750C0, symSize: 0x0 }
  - { offset: 0x85F84, size: 0x8, addend: 0x0, symName: _nif_funcs, symObjAddr: 0x1C78, symBinAddr: 0x174110, symSize: 0x0 }
  - { offset: 0x85FA5, size: 0x8, addend: 0x0, symName: __MergedGlobals, symObjAddr: 0xCF40, symBinAddr: 0x1750A8, symSize: 0x0 }
  - { offset: 0x85FCF, size: 0x8, addend: 0x0, symName: __MergedGlobals, symObjAddr: 0xCF40, symBinAddr: 0x1750A8, symSize: 0x0 }
  - { offset: 0x8605E, size: 0x8, addend: 0x0, symName: _on_load, symObjAddr: 0xC, symBinAddr: 0xFE93C, symSize: 0x148 }
  - { offset: 0x861D2, size: 0x8, addend: 0x0, symName: _on_reload, symObjAddr: 0x154, symBinAddr: 0xFEA84, symSize: 0x8 }
  - { offset: 0x86211, size: 0x8, addend: 0x0, symName: _on_upgrade, symObjAddr: 0x15C, symBinAddr: 0xFEA8C, symSize: 0x8 }
  - { offset: 0x8625C, size: 0x8, addend: 0x0, symName: __env_put, symObjAddr: 0x164, symBinAddr: 0xFEA94, symSize: 0x9C }
  - { offset: 0x863E4, size: 0x8, addend: 0x0, symName: __env_get, symObjAddr: 0x200, symBinAddr: 0xFEB30, symSize: 0x80 }
  - { offset: 0x864E0, size: 0x8, addend: 0x0, symName: __env_delete, symObjAddr: 0x280, symBinAddr: 0xFEBB0, symSize: 0x80 }
  - { offset: 0x8658A, size: 0x8, addend: 0x0, symName: __env_clear, symObjAddr: 0x300, symBinAddr: 0xFEC30, symSize: 0x20 }
  - { offset: 0x865C5, size: 0x8, addend: 0x0, symName: __start, symObjAddr: 0x320, symBinAddr: 0xFEC50, symSize: 0x20 }
  - { offset: 0x86614, size: 0x8, addend: 0x0, symName: __stop, symObjAddr: 0x340, symBinAddr: 0xFEC70, symSize: 0x20 }
  - { offset: 0x86686, size: 0x8, addend: 0x0, symName: __diagnose, symObjAddr: 0x360, symBinAddr: 0xFEC90, symSize: 0x2C }
  - { offset: 0x86737, size: 0x8, addend: 0x0, symName: __set_gauge, symObjAddr: 0x38C, symBinAddr: 0xFECBC, symSize: 0xC0 }
  - { offset: 0x86885, size: 0x8, addend: 0x0, symName: __increment_counter, symObjAddr: 0x44C, symBinAddr: 0xFED7C, symSize: 0xC0 }
  - { offset: 0x8698C, size: 0x8, addend: 0x0, symName: __add_distribution_value, symObjAddr: 0x50C, symBinAddr: 0xFEE3C, symSize: 0xC0 }
  - { offset: 0x86B0B, size: 0x8, addend: 0x0, symName: __data_map_new, symObjAddr: 0x5CC, symBinAddr: 0xFEEFC, symSize: 0xA4 }
  - { offset: 0x86CDB, size: 0x8, addend: 0x0, symName: __data_set_string, symObjAddr: 0x670, symBinAddr: 0xFEFA0, symSize: 0xE8 }
  - { offset: 0x86E0F, size: 0x8, addend: 0x0, symName: __data_set_integer, symObjAddr: 0x758, symBinAddr: 0xFF088, symSize: 0xE8 }
  - { offset: 0x86F7A, size: 0x8, addend: 0x0, symName: __data_set_float, symObjAddr: 0x840, symBinAddr: 0xFF170, symSize: 0xE8 }
  - { offset: 0x870B7, size: 0x8, addend: 0x0, symName: __data_set_boolean, symObjAddr: 0x928, symBinAddr: 0xFF258, symSize: 0xE8 }
  - { offset: 0x87214, size: 0x8, addend: 0x0, symName: __data_set_nil, symObjAddr: 0xA10, symBinAddr: 0xFF340, symSize: 0xB8 }
  - { offset: 0x87303, size: 0x8, addend: 0x0, symName: __data_set_data, symObjAddr: 0xAC8, symBinAddr: 0xFF3F8, symSize: 0xF8 }
  - { offset: 0x87440, size: 0x8, addend: 0x0, symName: __data_list_new, symObjAddr: 0xBC0, symBinAddr: 0xFF4F0, symSize: 0xA4 }
  - { offset: 0x875C8, size: 0x8, addend: 0x0, symName: __running_in_container, symObjAddr: 0xC64, symBinAddr: 0xFF594, symSize: 0x30 }
  - { offset: 0x87620, size: 0x8, addend: 0x0, symName: __loaded, symObjAddr: 0xC94, symBinAddr: 0xFF5C4, symSize: 0x10 }
  - { offset: 0x8765F, size: 0x8, addend: 0x0, symName: __create_root_span, symObjAddr: 0xCA4, symBinAddr: 0xFF5D4, symSize: 0xF8 }
  - { offset: 0x87841, size: 0x8, addend: 0x0, symName: __create_root_span_with_timestamp, symObjAddr: 0xD9C, symBinAddr: 0xFF6CC, symSize: 0x128 }
  - { offset: 0x87A81, size: 0x8, addend: 0x0, symName: __create_child_span, symObjAddr: 0xEC4, symBinAddr: 0xFF7F4, symSize: 0x100 }
  - { offset: 0x87C63, size: 0x8, addend: 0x0, symName: __create_child_span_with_timestamp, symObjAddr: 0xFC4, symBinAddr: 0xFF8F4, symSize: 0x130 }
  - { offset: 0x87EA3, size: 0x8, addend: 0x0, symName: __set_span_name, symObjAddr: 0x10F4, symBinAddr: 0xFFA24, symSize: 0xA8 }
  - { offset: 0x87F83, size: 0x8, addend: 0x0, symName: __set_span_name_if_nil, symObjAddr: 0x119C, symBinAddr: 0xFFACC, symSize: 0xA8 }
  - { offset: 0x88063, size: 0x8, addend: 0x0, symName: __set_span_namespace, symObjAddr: 0x1244, symBinAddr: 0xFFB74, symSize: 0xA8 }
  - { offset: 0x88143, size: 0x8, addend: 0x0, symName: __set_span_attribute_string, symObjAddr: 0x12EC, symBinAddr: 0xFFC1C, symSize: 0xC0 }
  - { offset: 0x88252, size: 0x8, addend: 0x0, symName: __set_span_attribute_int, symObjAddr: 0x13AC, symBinAddr: 0xFFCDC, symSize: 0xC0 }
  - { offset: 0x88361, size: 0x8, addend: 0x0, symName: __set_span_attribute_bool, symObjAddr: 0x146C, symBinAddr: 0xFFD9C, symSize: 0xC0 }
  - { offset: 0x88470, size: 0x8, addend: 0x0, symName: __set_span_attribute_double, symObjAddr: 0x152C, symBinAddr: 0xFFE5C, symSize: 0xC0 }
  - { offset: 0x8857F, size: 0x8, addend: 0x0, symName: __set_span_attribute_sql_string, symObjAddr: 0x15EC, symBinAddr: 0xFFF1C, symSize: 0xC0 }
  - { offset: 0x8868E, size: 0x8, addend: 0x0, symName: __set_span_sample_data, symObjAddr: 0x16AC, symBinAddr: 0xFFFDC, symSize: 0xCC }
  - { offset: 0x8879D, size: 0x8, addend: 0x0, symName: __set_span_sample_data_if_nil, symObjAddr: 0x1778, symBinAddr: 0x1000A8, symSize: 0xCC }
  - { offset: 0x888AC, size: 0x8, addend: 0x0, symName: __add_span_error, symObjAddr: 0x1844, symBinAddr: 0x100174, symSize: 0xE4 }
  - { offset: 0x889EA, size: 0x8, addend: 0x0, symName: __close_span, symObjAddr: 0x1928, symBinAddr: 0x100258, symSize: 0x8C }
  - { offset: 0x88A9B, size: 0x8, addend: 0x0, symName: __close_span_with_timestamp, symObjAddr: 0x19B4, symBinAddr: 0x1002E4, symSize: 0xBC }
  - { offset: 0x88BAA, size: 0x8, addend: 0x0, symName: __span_to_json, symObjAddr: 0x1A70, symBinAddr: 0x1003A0, symSize: 0xAC }
  - { offset: 0x88D17, size: 0x8, addend: 0x0, symName: __log, symObjAddr: 0x1B1C, symBinAddr: 0x10044C, symSize: 0xEC }
  - { offset: 0x88E85, size: 0x8, addend: 0x0, symName: _destruct_appsignal_data, symObjAddr: 0x1C08, symBinAddr: 0x100538, symSize: 0x8 }
  - { offset: 0x88EDD, size: 0x8, addend: 0x0, symName: _destruct_appsignal_span, symObjAddr: 0x1C10, symBinAddr: 0x100540, symSize: 0x8 }
...
